	.text
	.syntax unified
	.eabi_attribute	67, "2.09"	@ Tag_conformance
	.eabi_attribute	6, 10	@ Tag_CPU_arch
	.eabi_attribute	7, 65	@ Tag_CPU_arch_profile
	.eabi_attribute	8, 1	@ Tag_ARM_ISA_use
	.eabi_attribute	9, 2	@ Tag_THUMB_ISA_use
	.fpu	neon
	.eabi_attribute	34, 1	@ Tag_CPU_unaligned_access
	.eabi_attribute	15, 1	@ Tag_ABI_PCS_RW_data
	.eabi_attribute	16, 1	@ Tag_ABI_PCS_RO_data
	.eabi_attribute	17, 2	@ Tag_ABI_PCS_GOT_use
	.eabi_attribute	20, 1	@ Tag_ABI_FP_denormal
	.eabi_attribute	21, 1	@ Tag_ABI_FP_exceptions
	.eabi_attribute	23, 3	@ Tag_ABI_FP_number_model
	.eabi_attribute	24, 1	@ Tag_ABI_align_needed
	.eabi_attribute	25, 1	@ Tag_ABI_align_preserved
	.eabi_attribute	38, 1	@ Tag_ABI_FP_16bit_format
	.eabi_attribute	18, 4	@ Tag_ABI_PCS_wchar_t
	.eabi_attribute	26, 2	@ Tag_ABI_enum_size
	.eabi_attribute	14, 0	@ Tag_ABI_PCS_R9_use
	.file	"AACAudioData.cpp"
	.file	1 "/Users/bytedance/code/my/LiveStream/AndroidPublisher/rtmplive" "src/main/cpp/AACAudioData.h"
	.file	2 "/Users/bytedance" "Library/Android/sdk/ndk/21.4.7075529/toolchains/llvm/prebuilt/darwin-x86_64/sysroot/usr/include/c++/v1/__nullptr"
	.file	3 "/Users/bytedance" "Library/Android/sdk/ndk/21.4.7075529/toolchains/llvm/prebuilt/darwin-x86_64/sysroot/usr/include/c++/v1/stddef.h"
	.file	4 "/Users/bytedance" "Library/Android/sdk/ndk/21.4.7075529/toolchains/llvm/prebuilt/darwin-x86_64/lib64/clang/9.0.9/include/stddef.h"
	.file	5 "/Users/bytedance" "Library/Android/sdk/ndk/21.4.7075529/toolchains/llvm/prebuilt/darwin-x86_64/sysroot/usr/include/c++/v1/cstddef"
	.file	6 "/Users/bytedance" "Library/Android/sdk/ndk/21.4.7075529/toolchains/llvm/prebuilt/darwin-x86_64/lib64/clang/9.0.9/include/__stddef_max_align_t.h"
	.file	7 "/Users/bytedance" "Library/Android/sdk/ndk/21.4.7075529/toolchains/llvm/prebuilt/darwin-x86_64/sysroot/usr/include/c++/v1/cstdlib"
	.file	8 "/Users/bytedance" "Library/Android/sdk/ndk/21.4.7075529/toolchains/llvm/prebuilt/darwin-x86_64/sysroot/usr/include/stdlib.h"
	.file	9 "/Users/bytedance" "Library/Android/sdk/ndk/21.4.7075529/toolchains/llvm/prebuilt/darwin-x86_64/sysroot/usr/include/android/legacy_stdlib_inlines.h"
	.file	10 "/Users/bytedance" "Library/Android/sdk/ndk/21.4.7075529/toolchains/llvm/prebuilt/darwin-x86_64/sysroot/usr/include/malloc.h"
	.file	11 "/Users/bytedance" "Library/Android/sdk/ndk/21.4.7075529/toolchains/llvm/prebuilt/darwin-x86_64/sysroot/usr/include/c++/v1/math.h"
	.file	12 "/Users/bytedance" "Library/Android/sdk/ndk/21.4.7075529/toolchains/llvm/prebuilt/darwin-x86_64/sysroot/usr/local/include/stdlib.h"
	.file	13 "/Users/bytedance" "Library/Android/sdk/ndk/21.4.7075529/toolchains/llvm/prebuilt/darwin-x86_64/sysroot/usr/include/stdint.h"
	.file	14 "/Users/bytedance" "Library/Android/sdk/ndk/21.4.7075529/toolchains/llvm/prebuilt/darwin-x86_64/sysroot/usr/include/c++/v1/cstdint"
	.file	15 "/Users/bytedance" "Library/Android/sdk/ndk/21.4.7075529/toolchains/llvm/prebuilt/darwin-x86_64/sysroot/usr/include/c++/v1/cstring"
	.file	16 "/Users/bytedance" "Library/Android/sdk/ndk/21.4.7075529/toolchains/llvm/prebuilt/darwin-x86_64/sysroot/usr/include/string.h"
	.file	17 "/Users/bytedance" "Library/Android/sdk/ndk/21.4.7075529/toolchains/llvm/prebuilt/darwin-x86_64/sysroot/usr/include/bits/fortify/string.h"
	.file	18 "/Users/bytedance" "Library/Android/sdk/ndk/21.4.7075529/toolchains/llvm/prebuilt/darwin-x86_64/sysroot/usr/include/c++/v1/string.h"
	.section	.text._ZN12AACAudioData22AACAudioSpecificConfigC2EPci,"ax",%progbits
	.globl	_ZN12AACAudioData22AACAudioSpecificConfigC2EPci @ -- Begin function _ZN12AACAudioData22AACAudioSpecificConfigC2EPci
	.p2align	2
	.type	_ZN12AACAudioData22AACAudioSpecificConfigC2EPci,%function
	.code	16                      @ @_ZN12AACAudioData22AACAudioSpecificConfigC2EPci
	.thumb_func
_ZN12AACAudioData22AACAudioSpecificConfigC2EPci:
.Lfunc_begin0:
	.file	19 "/Users/bytedance/code/my/LiveStream/AndroidPublisher/rtmplive" "src/main/cpp/AACAudioData.cpp"
	.loc	19 10 0                 @ src/main/cpp/AACAudioData.cpp:10:0
	.fnstart
	.cfi_sections .debug_frame
	.cfi_startproc
@ %bb.0:
	.save	{r7, lr}
	push	{r7, lr}
	.cfi_def_cfa_offset 8
	.cfi_offset lr, -4
	.cfi_offset r7, -8
	.setfp	r7, sp
	mov	r7, sp
	.cfi_def_cfa_register r7
	.pad	#16
	sub	sp, #16
	str	r0, [sp, #12]
	str	r1, [sp, #8]
	str	r2, [sp, #4]
	ldr	r0, [sp, #12]
.Ltmp0:
	.loc	19 8 39 prologue_end    @ src/main/cpp/AACAudioData.cpp:8:39
	str	r0, [sp]                @ 4-byte Spill
	bl	_ZN12AACAudioData8IAACDataC2Ev
	.loc	19 10 42                @ src/main/cpp/AACAudioData.cpp:10:42
	ldr	r0, .LCPI0_0
.LPC0_0:
	add	r0, pc
	ldr	r0, [r0]
	adds	r0, #8
	ldr	r1, [sp]                @ 4-byte Reload
	str	r0, [r1]
	.loc	19 10 19 is_stmt 0      @ src/main/cpp/AACAudioData.cpp:10:19
	ldr	r0, [sp, #8]
	.loc	19 10 11                @ src/main/cpp/AACAudioData.cpp:10:11
	str	r0, [r1, #4]
	.loc	19 10 34                @ src/main/cpp/AACAudioData.cpp:10:34
	ldr	r0, [sp, #4]
	.loc	19 10 28                @ src/main/cpp/AACAudioData.cpp:10:28
	str	r0, [r1, #8]
	.loc	19 11 1 is_stmt 1       @ src/main/cpp/AACAudioData.cpp:11:1
	mov	r0, r1
	add	sp, #16
	pop	{r7, pc}
.Ltmp1:
	.p2align	2
@ %bb.1:
	.loc	19 0 1 is_stmt 0        @ src/main/cpp/AACAudioData.cpp:0:1
.LCPI0_0:
.Ltmp2:
	.long	_ZTVN12AACAudioData22AACAudioSpecificConfigE(GOT_PREL)-((.LPC0_0+4)-.Ltmp2)
.Lfunc_end0:
	.size	_ZN12AACAudioData22AACAudioSpecificConfigC2EPci, .Lfunc_end0-_ZN12AACAudioData22AACAudioSpecificConfigC2EPci
	.cfi_endproc
	.file	20 "/Users/bytedance/code/my/LiveStream/AndroidPublisher/rtmplive" "src/main/cpp/IBuffer.h"
	.file	21 "/Users/bytedance/code/my/LiveStream/AndroidPublisher/rtmplive" "src/main/cpp/ISoundData.h"
	.fnend
                                        @ -- End function
	.section	.text._ZN12AACAudioData8IAACDataC2Ev,"axG",%progbits,_ZN12AACAudioData8IAACDataC2Ev,comdat
	.weak	_ZN12AACAudioData8IAACDataC2Ev @ -- Begin function _ZN12AACAudioData8IAACDataC2Ev
	.p2align	2
	.type	_ZN12AACAudioData8IAACDataC2Ev,%function
	.code	16                      @ @_ZN12AACAudioData8IAACDataC2Ev
	.thumb_func
_ZN12AACAudioData8IAACDataC2Ev:
.Lfunc_begin1:
	.loc	1 21 0 is_stmt 1        @ src/main/cpp/AACAudioData.h:21:0
	.fnstart
	.cfi_startproc
@ %bb.0:
	.save	{r7, lr}
	push	{r7, lr}
	.cfi_def_cfa_offset 8
	.cfi_offset lr, -4
	.cfi_offset r7, -8
	.setfp	r7, sp
	mov	r7, sp
	.cfi_def_cfa_register r7
	.pad	#8
	sub	sp, #8
	str	r0, [sp, #4]
	ldr	r0, [sp, #4]
.Ltmp3:
	.loc	1 21 11 prologue_end    @ src/main/cpp/AACAudioData.h:21:11
	str	r0, [sp]                @ 4-byte Spill
	bl	_ZN7IBufferC2Ev
	ldr	r0, .LCPI1_0
.LPC1_0:
	add	r0, pc
	ldr	r0, [r0]
	adds	r0, #8
	ldr	r1, [sp]                @ 4-byte Reload
	str	r0, [r1]
	mov	r0, r1
	add	sp, #8
	pop	{r7, pc}
.Ltmp4:
	.p2align	2
@ %bb.1:
	.loc	1 0 11 is_stmt 0        @ src/main/cpp/AACAudioData.h:0:11
.LCPI1_0:
.Ltmp5:
	.long	_ZTVN12AACAudioData8IAACDataE(GOT_PREL)-((.LPC1_0+4)-.Ltmp5)
.Lfunc_end1:
	.size	_ZN12AACAudioData8IAACDataC2Ev, .Lfunc_end1-_ZN12AACAudioData8IAACDataC2Ev
	.cfi_endproc
	.fnend
                                        @ -- End function
	.section	.text._ZN12AACAudioData22AACAudioSpecificConfig4SizeEv,"ax",%progbits
	.globl	_ZN12AACAudioData22AACAudioSpecificConfig4SizeEv @ -- Begin function _ZN12AACAudioData22AACAudioSpecificConfig4SizeEv
	.p2align	1
	.type	_ZN12AACAudioData22AACAudioSpecificConfig4SizeEv,%function
	.code	16                      @ @_ZN12AACAudioData22AACAudioSpecificConfig4SizeEv
	.thumb_func
_ZN12AACAudioData22AACAudioSpecificConfig4SizeEv:
.Lfunc_begin2:
	.loc	19 13 0 is_stmt 1       @ src/main/cpp/AACAudioData.cpp:13:0
	.fnstart
	.cfi_startproc
@ %bb.0:
	.pad	#4
	sub	sp, #4
	.cfi_def_cfa_offset 4
	str	r0, [sp]
	ldr	r0, [sp]
.Ltmp6:
	.loc	19 14 12 prologue_end   @ src/main/cpp/AACAudioData.cpp:14:12
	ldr	r0, [r0, #8]
	.loc	19 14 5 is_stmt 0       @ src/main/cpp/AACAudioData.cpp:14:5
	add	sp, #4
	bx	lr
.Ltmp7:
.Lfunc_end2:
	.size	_ZN12AACAudioData22AACAudioSpecificConfig4SizeEv, .Lfunc_end2-_ZN12AACAudioData22AACAudioSpecificConfig4SizeEv
	.cfi_endproc
	.fnend
                                        @ -- End function
	.section	.text._ZN12AACAudioData22AACAudioSpecificConfig7WriteToEPc,"ax",%progbits
	.globl	_ZN12AACAudioData22AACAudioSpecificConfig7WriteToEPc @ -- Begin function _ZN12AACAudioData22AACAudioSpecificConfig7WriteToEPc
	.p2align	1
	.type	_ZN12AACAudioData22AACAudioSpecificConfig7WriteToEPc,%function
	.code	16                      @ @_ZN12AACAudioData22AACAudioSpecificConfig7WriteToEPc
	.thumb_func
_ZN12AACAudioData22AACAudioSpecificConfig7WriteToEPc:
.Lfunc_begin3:
	.loc	19 17 0 is_stmt 1       @ src/main/cpp/AACAudioData.cpp:17:0
	.fnstart
	.cfi_startproc
@ %bb.0:
	.save	{r7, lr}
	push	{r7, lr}
	.cfi_def_cfa_offset 8
	.cfi_offset lr, -4
	.cfi_offset r7, -8
	.setfp	r7, sp
	mov	r7, sp
	.cfi_def_cfa_register r7
	.pad	#16
	sub	sp, #16
	str	r0, [sp, #12]
	str	r1, [sp, #8]
	ldr	r0, [sp, #12]
.Ltmp8:
	.loc	19 18 12 prologue_end   @ src/main/cpp/AACAudioData.cpp:18:12
	ldr	r1, [sp, #8]
	.loc	19 18 20 is_stmt 0      @ src/main/cpp/AACAudioData.cpp:18:20
	ldr	r2, [r0, #4]
	.loc	19 18 29                @ src/main/cpp/AACAudioData.cpp:18:29
	ldr	r3, [r0, #8]
	.loc	19 18 5                 @ src/main/cpp/AACAudioData.cpp:18:5
	str	r0, [sp, #4]            @ 4-byte Spill
	mov	r0, r1
	mov	r1, r2
	mov	r2, r3
	bl	__aeabi_memcpy
	.loc	19 19 12 is_stmt 1      @ src/main/cpp/AACAudioData.cpp:19:12
	ldr	r1, [sp, #8]
	.loc	19 19 21 is_stmt 0      @ src/main/cpp/AACAudioData.cpp:19:21
	ldr	r2, [sp, #4]            @ 4-byte Reload
	ldr	r3, [r2, #8]
	.loc	19 19 19                @ src/main/cpp/AACAudioData.cpp:19:19
	add	r1, r3
	.loc	19 19 5                 @ src/main/cpp/AACAudioData.cpp:19:5
	str	r0, [sp]                @ 4-byte Spill
	mov	r0, r1
	add	sp, #16
	pop	{r7, pc}
.Ltmp9:
.Lfunc_end3:
	.size	_ZN12AACAudioData22AACAudioSpecificConfig7WriteToEPc, .Lfunc_end3-_ZN12AACAudioData22AACAudioSpecificConfig7WriteToEPc
	.cfi_endproc
	.fnend
                                        @ -- End function
	.section	.text._ZN12AACAudioData17AACAudioFrameDataC2EPci,"ax",%progbits
	.globl	_ZN12AACAudioData17AACAudioFrameDataC2EPci @ -- Begin function _ZN12AACAudioData17AACAudioFrameDataC2EPci
	.p2align	2
	.type	_ZN12AACAudioData17AACAudioFrameDataC2EPci,%function
	.code	16                      @ @_ZN12AACAudioData17AACAudioFrameDataC2EPci
	.thumb_func
_ZN12AACAudioData17AACAudioFrameDataC2EPci:
.Lfunc_begin4:
	.loc	19 23 0 is_stmt 1       @ src/main/cpp/AACAudioData.cpp:23:0
	.fnstart
	.cfi_startproc
@ %bb.0:
	.save	{r7, lr}
	push	{r7, lr}
	.cfi_def_cfa_offset 8
	.cfi_offset lr, -4
	.cfi_offset r7, -8
	.setfp	r7, sp
	mov	r7, sp
	.cfi_def_cfa_register r7
	.pad	#16
	sub	sp, #16
	str	r0, [sp, #12]
	str	r1, [sp, #8]
	str	r2, [sp, #4]
	ldr	r0, [sp, #12]
.Ltmp10:
	.loc	19 22 34 prologue_end   @ src/main/cpp/AACAudioData.cpp:22:34
	str	r0, [sp]                @ 4-byte Spill
	bl	_ZN12AACAudioData8IAACDataC2Ev
	.loc	19 23 42                @ src/main/cpp/AACAudioData.cpp:23:42
	ldr	r0, .LCPI4_0
.LPC4_0:
	add	r0, pc
	ldr	r0, [r0]
	adds	r0, #8
	ldr	r1, [sp]                @ 4-byte Reload
	str	r0, [r1]
	.loc	19 23 19 is_stmt 0      @ src/main/cpp/AACAudioData.cpp:23:19
	ldr	r0, [sp, #8]
	.loc	19 23 11                @ src/main/cpp/AACAudioData.cpp:23:11
	str	r0, [r1, #4]
	.loc	19 23 34                @ src/main/cpp/AACAudioData.cpp:23:34
	ldr	r0, [sp, #4]
	.loc	19 23 28                @ src/main/cpp/AACAudioData.cpp:23:28
	str	r0, [r1, #8]
	.loc	19 24 1 is_stmt 1       @ src/main/cpp/AACAudioData.cpp:24:1
	mov	r0, r1
	add	sp, #16
	pop	{r7, pc}
.Ltmp11:
	.p2align	2
@ %bb.1:
	.loc	19 0 1 is_stmt 0        @ src/main/cpp/AACAudioData.cpp:0:1
.LCPI4_0:
.Ltmp12:
	.long	_ZTVN12AACAudioData17AACAudioFrameDataE(GOT_PREL)-((.LPC4_0+4)-.Ltmp12)
.Lfunc_end4:
	.size	_ZN12AACAudioData17AACAudioFrameDataC2EPci, .Lfunc_end4-_ZN12AACAudioData17AACAudioFrameDataC2EPci
	.cfi_endproc
	.fnend
                                        @ -- End function
	.section	.text._ZN12AACAudioData17AACAudioFrameData7WriteToEPc,"ax",%progbits
	.globl	_ZN12AACAudioData17AACAudioFrameData7WriteToEPc @ -- Begin function _ZN12AACAudioData17AACAudioFrameData7WriteToEPc
	.p2align	1
	.type	_ZN12AACAudioData17AACAudioFrameData7WriteToEPc,%function
	.code	16                      @ @_ZN12AACAudioData17AACAudioFrameData7WriteToEPc
	.thumb_func
_ZN12AACAudioData17AACAudioFrameData7WriteToEPc:
.Lfunc_begin5:
	.loc	19 26 0 is_stmt 1       @ src/main/cpp/AACAudioData.cpp:26:0
	.fnstart
	.cfi_startproc
@ %bb.0:
	.save	{r7, lr}
	push	{r7, lr}
	.cfi_def_cfa_offset 8
	.cfi_offset lr, -4
	.cfi_offset r7, -8
	.setfp	r7, sp
	mov	r7, sp
	.cfi_def_cfa_register r7
	.pad	#16
	sub	sp, #16
	str	r0, [sp, #12]
	str	r1, [sp, #8]
	ldr	r0, [sp, #12]
.Ltmp13:
	.loc	19 27 12 prologue_end   @ src/main/cpp/AACAudioData.cpp:27:12
	ldr	r1, [sp, #8]
	.loc	19 27 20 is_stmt 0      @ src/main/cpp/AACAudioData.cpp:27:20
	ldr	r2, [r0, #4]
	.loc	19 27 29                @ src/main/cpp/AACAudioData.cpp:27:29
	ldr	r3, [r0, #8]
	.loc	19 27 5                 @ src/main/cpp/AACAudioData.cpp:27:5
	str	r0, [sp, #4]            @ 4-byte Spill
	mov	r0, r1
	mov	r1, r2
	mov	r2, r3
	bl	__aeabi_memcpy
	.loc	19 28 12 is_stmt 1      @ src/main/cpp/AACAudioData.cpp:28:12
	ldr	r1, [sp, #8]
	.loc	19 28 21 is_stmt 0      @ src/main/cpp/AACAudioData.cpp:28:21
	ldr	r2, [sp, #4]            @ 4-byte Reload
	ldr	r3, [r2, #8]
	.loc	19 28 19                @ src/main/cpp/AACAudioData.cpp:28:19
	add	r1, r3
	.loc	19 28 5                 @ src/main/cpp/AACAudioData.cpp:28:5
	str	r0, [sp]                @ 4-byte Spill
	mov	r0, r1
	add	sp, #16
	pop	{r7, pc}
.Ltmp14:
.Lfunc_end5:
	.size	_ZN12AACAudioData17AACAudioFrameData7WriteToEPc, .Lfunc_end5-_ZN12AACAudioData17AACAudioFrameData7WriteToEPc
	.cfi_endproc
	.fnend
                                        @ -- End function
	.section	.text._ZN12AACAudioData17AACAudioFrameData4SizeEv,"ax",%progbits
	.globl	_ZN12AACAudioData17AACAudioFrameData4SizeEv @ -- Begin function _ZN12AACAudioData17AACAudioFrameData4SizeEv
	.p2align	1
	.type	_ZN12AACAudioData17AACAudioFrameData4SizeEv,%function
	.code	16                      @ @_ZN12AACAudioData17AACAudioFrameData4SizeEv
	.thumb_func
_ZN12AACAudioData17AACAudioFrameData4SizeEv:
.Lfunc_begin6:
	.loc	19 31 0 is_stmt 1       @ src/main/cpp/AACAudioData.cpp:31:0
	.fnstart
	.cfi_startproc
@ %bb.0:
	.pad	#4
	sub	sp, #4
	.cfi_def_cfa_offset 4
	str	r0, [sp]
	ldr	r0, [sp]
.Ltmp15:
	.loc	19 32 12 prologue_end   @ src/main/cpp/AACAudioData.cpp:32:12
	ldr	r0, [r0, #8]
	.loc	19 32 5 is_stmt 0       @ src/main/cpp/AACAudioData.cpp:32:5
	add	sp, #4
	bx	lr
.Ltmp16:
.Lfunc_end6:
	.size	_ZN12AACAudioData17AACAudioFrameData4SizeEv, .Lfunc_end6-_ZN12AACAudioData17AACAudioFrameData4SizeEv
	.cfi_endproc
	.fnend
                                        @ -- End function
	.section	.text._ZN12AACAudioDataC2E13AACPacketTypePNS_8IAACDataE,"ax",%progbits
	.globl	_ZN12AACAudioDataC2E13AACPacketTypePNS_8IAACDataE @ -- Begin function _ZN12AACAudioDataC2E13AACPacketTypePNS_8IAACDataE
	.p2align	2
	.type	_ZN12AACAudioDataC2E13AACPacketTypePNS_8IAACDataE,%function
	.code	16                      @ @_ZN12AACAudioDataC2E13AACPacketTypePNS_8IAACDataE
	.thumb_func
_ZN12AACAudioDataC2E13AACPacketTypePNS_8IAACDataE:
.Lfunc_begin7:
	.loc	19 36 0 is_stmt 1       @ src/main/cpp/AACAudioData.cpp:36:0
	.fnstart
	.cfi_startproc
@ %bb.0:
	.save	{r7, lr}
	push	{r7, lr}
	.cfi_def_cfa_offset 8
	.cfi_offset lr, -4
	.cfi_offset r7, -8
	.setfp	r7, sp
	mov	r7, sp
	.cfi_def_cfa_register r7
	.pad	#16
	sub	sp, #16
	str	r0, [sp, #12]
	str	r1, [sp, #8]
	str	r2, [sp, #4]
	ldr	r0, [sp, #12]
.Ltmp17:
	.loc	19 35 15 prologue_end   @ src/main/cpp/AACAudioData.cpp:35:15
	str	r0, [sp]                @ 4-byte Spill
	bl	_ZN10ISoundDataC2Ev
	.loc	19 36 50                @ src/main/cpp/AACAudioData.cpp:36:50
	ldr	r0, .LCPI7_0
.LPC7_0:
	add	r0, pc
	ldr	r0, [r0]
	adds	r0, #8
	ldr	r1, [sp]                @ 4-byte Reload
	str	r0, [r1]
	.loc	19 36 24 is_stmt 0      @ src/main/cpp/AACAudioData.cpp:36:24
	ldr	r0, [sp, #8]
	.loc	19 36 11                @ src/main/cpp/AACAudioData.cpp:36:11
	str	r0, [r1, #4]
	.loc	19 36 44                @ src/main/cpp/AACAudioData.cpp:36:44
	ldr	r0, [sp, #4]
	.loc	19 36 38                @ src/main/cpp/AACAudioData.cpp:36:38
	str	r0, [r1, #8]
	.loc	19 37 1 is_stmt 1       @ src/main/cpp/AACAudioData.cpp:37:1
	mov	r0, r1
	add	sp, #16
	pop	{r7, pc}
.Ltmp18:
	.p2align	2
@ %bb.1:
	.loc	19 0 1 is_stmt 0        @ src/main/cpp/AACAudioData.cpp:0:1
.LCPI7_0:
.Ltmp19:
	.long	_ZTV12AACAudioData(GOT_PREL)-((.LPC7_0+4)-.Ltmp19)
.Lfunc_end7:
	.size	_ZN12AACAudioDataC2E13AACPacketTypePNS_8IAACDataE, .Lfunc_end7-_ZN12AACAudioDataC2E13AACPacketTypePNS_8IAACDataE
	.cfi_endproc
	.fnend
                                        @ -- End function
	.section	.text._ZN10ISoundDataC2Ev,"axG",%progbits,_ZN10ISoundDataC2Ev,comdat
	.weak	_ZN10ISoundDataC2Ev     @ -- Begin function _ZN10ISoundDataC2Ev
	.p2align	2
	.type	_ZN10ISoundDataC2Ev,%function
	.code	16                      @ @_ZN10ISoundDataC2Ev
	.thumb_func
_ZN10ISoundDataC2Ev:
.Lfunc_begin8:
	.loc	21 9 0 is_stmt 1        @ src/main/cpp/ISoundData.h:9:0
	.fnstart
	.cfi_startproc
@ %bb.0:
	.save	{r7, lr}
	push	{r7, lr}
	.cfi_def_cfa_offset 8
	.cfi_offset lr, -4
	.cfi_offset r7, -8
	.setfp	r7, sp
	mov	r7, sp
	.cfi_def_cfa_register r7
	.pad	#8
	sub	sp, #8
	str	r0, [sp, #4]
	ldr	r0, [sp, #4]
.Ltmp20:
	.loc	21 9 7 prologue_end     @ src/main/cpp/ISoundData.h:9:7
	str	r0, [sp]                @ 4-byte Spill
	bl	_ZN7IBufferC2Ev
	ldr	r0, .LCPI8_0
.LPC8_0:
	add	r0, pc
	ldr	r0, [r0]
	adds	r0, #8
	ldr	r1, [sp]                @ 4-byte Reload
	str	r0, [r1]
	mov	r0, r1
	add	sp, #8
	pop	{r7, pc}
.Ltmp21:
	.p2align	2
@ %bb.1:
	.loc	21 0 7 is_stmt 0        @ src/main/cpp/ISoundData.h:0:7
.LCPI8_0:
.Ltmp22:
	.long	_ZTV10ISoundData(GOT_PREL)-((.LPC8_0+4)-.Ltmp22)
.Lfunc_end8:
	.size	_ZN10ISoundDataC2Ev, .Lfunc_end8-_ZN10ISoundDataC2Ev
	.cfi_endproc
	.fnend
                                        @ -- End function
	.section	.text._ZN12AACAudioData7WriteToEPc,"ax",%progbits
	.globl	_ZN12AACAudioData7WriteToEPc @ -- Begin function _ZN12AACAudioData7WriteToEPc
	.p2align	1
	.type	_ZN12AACAudioData7WriteToEPc,%function
	.code	16                      @ @_ZN12AACAudioData7WriteToEPc
	.thumb_func
_ZN12AACAudioData7WriteToEPc:
.Lfunc_begin9:
	.loc	19 39 0 is_stmt 1       @ src/main/cpp/AACAudioData.cpp:39:0
	.fnstart
	.cfi_startproc
@ %bb.0:
	.save	{r7, lr}
	push	{r7, lr}
	.cfi_def_cfa_offset 8
	.cfi_offset lr, -4
	.cfi_offset r7, -8
	.setfp	r7, sp
	mov	r7, sp
	.cfi_def_cfa_register r7
	.pad	#16
	sub	sp, #16
	str	r0, [sp, #12]
	str	r1, [sp, #8]
	ldr	r0, [sp, #12]
.Ltmp23:
	.loc	19 40 19 prologue_end   @ src/main/cpp/AACAudioData.cpp:40:19
	ldr	r1, [r0, #4]
	.loc	19 40 13 is_stmt 0      @ src/main/cpp/AACAudioData.cpp:40:13
	ldr	r2, [sp, #8]
	adds	r3, r2, #1
	str	r3, [sp, #8]
	.loc	19 40 17                @ src/main/cpp/AACAudioData.cpp:40:17
	strb	r1, [r2]
	.loc	19 41 5 is_stmt 1       @ src/main/cpp/AACAudioData.cpp:41:5
	ldr	r1, [r0, #8]
	.loc	19 41 20 is_stmt 0      @ src/main/cpp/AACAudioData.cpp:41:20
	ldr	r2, [sp, #8]
	.loc	19 41 12                @ src/main/cpp/AACAudioData.cpp:41:12
	ldr	r3, [r1]
	ldr	r3, [r3]
	str	r0, [sp, #4]            @ 4-byte Spill
	mov	r0, r1
	mov	r1, r2
	blx	r3
	.loc	19 42 14 is_stmt 1      @ src/main/cpp/AACAudioData.cpp:42:14
	ldr	r1, [sp, #4]            @ 4-byte Reload
	ldr	r2, [r1, #8]
	.loc	19 42 29 is_stmt 0      @ src/main/cpp/AACAudioData.cpp:42:29
	ldr	r1, [sp, #8]
	.loc	19 42 21                @ src/main/cpp/AACAudioData.cpp:42:21
	ldr	r3, [r2]
	ldr	r3, [r3]
	str	r0, [sp]                @ 4-byte Spill
	mov	r0, r2
	blx	r3
	.loc	19 42 12                @ src/main/cpp/AACAudioData.cpp:42:12
	str	r0, [sp, #8]
	.loc	19 43 12 is_stmt 1      @ src/main/cpp/AACAudioData.cpp:43:12
	ldr	r0, [sp, #8]
	.loc	19 43 5 is_stmt 0       @ src/main/cpp/AACAudioData.cpp:43:5
	add	sp, #16
	pop	{r7, pc}
.Ltmp24:
.Lfunc_end9:
	.size	_ZN12AACAudioData7WriteToEPc, .Lfunc_end9-_ZN12AACAudioData7WriteToEPc
	.cfi_endproc
	.fnend
                                        @ -- End function
	.section	.text._ZN12AACAudioData4SizeEv,"ax",%progbits
	.globl	_ZN12AACAudioData4SizeEv @ -- Begin function _ZN12AACAudioData4SizeEv
	.p2align	1
	.type	_ZN12AACAudioData4SizeEv,%function
	.code	16                      @ @_ZN12AACAudioData4SizeEv
	.thumb_func
_ZN12AACAudioData4SizeEv:
.Lfunc_begin10:
	.loc	19 46 0 is_stmt 1       @ src/main/cpp/AACAudioData.cpp:46:0
	.fnstart
	.cfi_startproc
@ %bb.0:
	.save	{r7, lr}
	push	{r7, lr}
	.cfi_def_cfa_offset 8
	.cfi_offset lr, -4
	.cfi_offset r7, -8
	.setfp	r7, sp
	mov	r7, sp
	.cfi_def_cfa_register r7
	.pad	#8
	sub	sp, #8
	str	r0, [sp, #4]
	ldr	r0, [sp, #4]
.Ltmp25:
	.loc	19 47 16 prologue_end   @ src/main/cpp/AACAudioData.cpp:47:16
	ldr	r0, [r0, #8]
	.loc	19 47 23 is_stmt 0      @ src/main/cpp/AACAudioData.cpp:47:23
	ldr	r1, [r0]
	ldr	r1, [r1, #4]
	blx	r1
	.loc	19 47 14                @ src/main/cpp/AACAudioData.cpp:47:14
	adds	r0, #1
	.loc	19 47 5                 @ src/main/cpp/AACAudioData.cpp:47:5
	add	sp, #8
	pop	{r7, pc}
.Ltmp26:
.Lfunc_end10:
	.size	_ZN12AACAudioData4SizeEv, .Lfunc_end10-_ZN12AACAudioData4SizeEv
	.cfi_endproc
	.fnend
                                        @ -- End function
	.section	.text._ZN7IBufferC2Ev,"axG",%progbits,_ZN7IBufferC2Ev,comdat
	.weak	_ZN7IBufferC2Ev         @ -- Begin function _ZN7IBufferC2Ev
	.p2align	2
	.type	_ZN7IBufferC2Ev,%function
	.code	16                      @ @_ZN7IBufferC2Ev
	.thumb_func
_ZN7IBufferC2Ev:
.Lfunc_begin11:
	.loc	20 9 0 is_stmt 1        @ src/main/cpp/IBuffer.h:9:0
	.fnstart
	.cfi_startproc
@ %bb.0:
	.pad	#4
	sub	sp, #4
	.cfi_def_cfa_offset 4
	str	r0, [sp]
	ldr	r0, [sp]
.Ltmp27:
	.loc	20 9 7 prologue_end     @ src/main/cpp/IBuffer.h:9:7
	ldr	r1, .LCPI11_0
.LPC11_0:
	add	r1, pc
	ldr	r1, [r1]
	adds	r1, #8
	str	r1, [r0]
	add	sp, #4
	bx	lr
.Ltmp28:
	.p2align	2
@ %bb.1:
	.loc	20 0 7 is_stmt 0        @ src/main/cpp/IBuffer.h:0:7
.LCPI11_0:
.Ltmp29:
	.long	_ZTV7IBuffer(GOT_PREL)-((.LPC11_0+4)-.Ltmp29)
.Lfunc_end11:
	.size	_ZN7IBufferC2Ev, .Lfunc_end11-_ZN7IBufferC2Ev
	.cfi_endproc
	.fnend
                                        @ -- End function
	.type	_ZTVN12AACAudioData22AACAudioSpecificConfigE,%object @ @_ZTVN12AACAudioData22AACAudioSpecificConfigE
	.section	.data.rel.ro._ZTVN12AACAudioData22AACAudioSpecificConfigE,"aw",%progbits
	.globl	_ZTVN12AACAudioData22AACAudioSpecificConfigE
	.p2align	2
_ZTVN12AACAudioData22AACAudioSpecificConfigE:
	.long	0
	.long	_ZTIN12AACAudioData22AACAudioSpecificConfigE
	.long	_ZN12AACAudioData22AACAudioSpecificConfig7WriteToEPc
	.long	_ZN12AACAudioData22AACAudioSpecificConfig4SizeEv
	.size	_ZTVN12AACAudioData22AACAudioSpecificConfigE, 16

	.type	_ZTVN12AACAudioData17AACAudioFrameDataE,%object @ @_ZTVN12AACAudioData17AACAudioFrameDataE
	.section	.data.rel.ro._ZTVN12AACAudioData17AACAudioFrameDataE,"aw",%progbits
	.globl	_ZTVN12AACAudioData17AACAudioFrameDataE
	.p2align	2
_ZTVN12AACAudioData17AACAudioFrameDataE:
	.long	0
	.long	_ZTIN12AACAudioData17AACAudioFrameDataE
	.long	_ZN12AACAudioData17AACAudioFrameData7WriteToEPc
	.long	_ZN12AACAudioData17AACAudioFrameData4SizeEv
	.size	_ZTVN12AACAudioData17AACAudioFrameDataE, 16

	.type	_ZTV12AACAudioData,%object @ @_ZTV12AACAudioData
	.section	.data.rel.ro._ZTV12AACAudioData,"aw",%progbits
	.globl	_ZTV12AACAudioData
	.p2align	2
_ZTV12AACAudioData:
	.long	0
	.long	_ZTI12AACAudioData
	.long	_ZN12AACAudioData7WriteToEPc
	.long	_ZN12AACAudioData4SizeEv
	.size	_ZTV12AACAudioData, 16

	.type	_ZTSN12AACAudioData22AACAudioSpecificConfigE,%object @ @_ZTSN12AACAudioData22AACAudioSpecificConfigE
	.section	.rodata._ZTSN12AACAudioData22AACAudioSpecificConfigE,"a",%progbits
	.globl	_ZTSN12AACAudioData22AACAudioSpecificConfigE
_ZTSN12AACAudioData22AACAudioSpecificConfigE:
	.asciz	"N12AACAudioData22AACAudioSpecificConfigE"
	.size	_ZTSN12AACAudioData22AACAudioSpecificConfigE, 41

	.type	_ZTSN12AACAudioData8IAACDataE,%object @ @_ZTSN12AACAudioData8IAACDataE
	.section	.rodata._ZTSN12AACAudioData8IAACDataE,"aG",%progbits,_ZTSN12AACAudioData8IAACDataE,comdat
	.weak	_ZTSN12AACAudioData8IAACDataE
_ZTSN12AACAudioData8IAACDataE:
	.asciz	"N12AACAudioData8IAACDataE"
	.size	_ZTSN12AACAudioData8IAACDataE, 26

	.type	_ZTS7IBuffer,%object    @ @_ZTS7IBuffer
	.section	.rodata._ZTS7IBuffer,"aG",%progbits,_ZTS7IBuffer,comdat
	.weak	_ZTS7IBuffer
_ZTS7IBuffer:
	.asciz	"7IBuffer"
	.size	_ZTS7IBuffer, 9

	.type	_ZTI7IBuffer,%object    @ @_ZTI7IBuffer
	.section	.data.rel.ro._ZTI7IBuffer,"aGw",%progbits,_ZTI7IBuffer,comdat
	.weak	_ZTI7IBuffer
	.p2align	2
_ZTI7IBuffer:
	.long	_ZTVN10__cxxabiv117__class_type_infoE+8
	.long	_ZTS7IBuffer
	.size	_ZTI7IBuffer, 8

	.type	_ZTIN12AACAudioData8IAACDataE,%object @ @_ZTIN12AACAudioData8IAACDataE
	.section	.data.rel.ro._ZTIN12AACAudioData8IAACDataE,"aGw",%progbits,_ZTIN12AACAudioData8IAACDataE,comdat
	.weak	_ZTIN12AACAudioData8IAACDataE
	.p2align	2
_ZTIN12AACAudioData8IAACDataE:
	.long	_ZTVN10__cxxabiv120__si_class_type_infoE+8
	.long	_ZTSN12AACAudioData8IAACDataE
	.long	_ZTI7IBuffer
	.size	_ZTIN12AACAudioData8IAACDataE, 12

	.type	_ZTIN12AACAudioData22AACAudioSpecificConfigE,%object @ @_ZTIN12AACAudioData22AACAudioSpecificConfigE
	.section	.data.rel.ro._ZTIN12AACAudioData22AACAudioSpecificConfigE,"aw",%progbits
	.globl	_ZTIN12AACAudioData22AACAudioSpecificConfigE
	.p2align	2
_ZTIN12AACAudioData22AACAudioSpecificConfigE:
	.long	_ZTVN10__cxxabiv120__si_class_type_infoE+8
	.long	_ZTSN12AACAudioData22AACAudioSpecificConfigE
	.long	_ZTIN12AACAudioData8IAACDataE
	.size	_ZTIN12AACAudioData22AACAudioSpecificConfigE, 12

	.type	_ZTSN12AACAudioData17AACAudioFrameDataE,%object @ @_ZTSN12AACAudioData17AACAudioFrameDataE
	.section	.rodata._ZTSN12AACAudioData17AACAudioFrameDataE,"a",%progbits
	.globl	_ZTSN12AACAudioData17AACAudioFrameDataE
_ZTSN12AACAudioData17AACAudioFrameDataE:
	.asciz	"N12AACAudioData17AACAudioFrameDataE"
	.size	_ZTSN12AACAudioData17AACAudioFrameDataE, 36

	.type	_ZTIN12AACAudioData17AACAudioFrameDataE,%object @ @_ZTIN12AACAudioData17AACAudioFrameDataE
	.section	.data.rel.ro._ZTIN12AACAudioData17AACAudioFrameDataE,"aw",%progbits
	.globl	_ZTIN12AACAudioData17AACAudioFrameDataE
	.p2align	2
_ZTIN12AACAudioData17AACAudioFrameDataE:
	.long	_ZTVN10__cxxabiv120__si_class_type_infoE+8
	.long	_ZTSN12AACAudioData17AACAudioFrameDataE
	.long	_ZTIN12AACAudioData8IAACDataE
	.size	_ZTIN12AACAudioData17AACAudioFrameDataE, 12

	.type	_ZTS12AACAudioData,%object @ @_ZTS12AACAudioData
	.section	.rodata._ZTS12AACAudioData,"a",%progbits
	.globl	_ZTS12AACAudioData
_ZTS12AACAudioData:
	.asciz	"12AACAudioData"
	.size	_ZTS12AACAudioData, 15

	.type	_ZTS10ISoundData,%object @ @_ZTS10ISoundData
	.section	.rodata._ZTS10ISoundData,"aG",%progbits,_ZTS10ISoundData,comdat
	.weak	_ZTS10ISoundData
_ZTS10ISoundData:
	.asciz	"10ISoundData"
	.size	_ZTS10ISoundData, 13

	.type	_ZTI10ISoundData,%object @ @_ZTI10ISoundData
	.section	.data.rel.ro._ZTI10ISoundData,"aGw",%progbits,_ZTI10ISoundData,comdat
	.weak	_ZTI10ISoundData
	.p2align	2
_ZTI10ISoundData:
	.long	_ZTVN10__cxxabiv120__si_class_type_infoE+8
	.long	_ZTS10ISoundData
	.long	_ZTI7IBuffer
	.size	_ZTI10ISoundData, 12

	.type	_ZTI12AACAudioData,%object @ @_ZTI12AACAudioData
	.section	.data.rel.ro._ZTI12AACAudioData,"aw",%progbits
	.globl	_ZTI12AACAudioData
	.p2align	2
_ZTI12AACAudioData:
	.long	_ZTVN10__cxxabiv120__si_class_type_infoE+8
	.long	_ZTS12AACAudioData
	.long	_ZTI10ISoundData
	.size	_ZTI12AACAudioData, 12

	.type	_ZTVN12AACAudioData8IAACDataE,%object @ @_ZTVN12AACAudioData8IAACDataE
	.section	.data.rel.ro._ZTVN12AACAudioData8IAACDataE,"aGw",%progbits,_ZTVN12AACAudioData8IAACDataE,comdat
	.weak	_ZTVN12AACAudioData8IAACDataE
	.p2align	2
_ZTVN12AACAudioData8IAACDataE:
	.long	0
	.long	_ZTIN12AACAudioData8IAACDataE
	.long	__cxa_pure_virtual
	.long	__cxa_pure_virtual
	.size	_ZTVN12AACAudioData8IAACDataE, 16

	.type	_ZTV7IBuffer,%object    @ @_ZTV7IBuffer
	.section	.data.rel.ro._ZTV7IBuffer,"aGw",%progbits,_ZTV7IBuffer,comdat
	.weak	_ZTV7IBuffer
	.p2align	2
_ZTV7IBuffer:
	.long	0
	.long	_ZTI7IBuffer
	.long	__cxa_pure_virtual
	.long	__cxa_pure_virtual
	.size	_ZTV7IBuffer, 16

	.type	_ZTV10ISoundData,%object @ @_ZTV10ISoundData
	.section	.data.rel.ro._ZTV10ISoundData,"aGw",%progbits,_ZTV10ISoundData,comdat
	.weak	_ZTV10ISoundData
	.p2align	2
_ZTV10ISoundData:
	.long	0
	.long	_ZTI10ISoundData
	.long	__cxa_pure_virtual
	.long	__cxa_pure_virtual
	.size	_ZTV10ISoundData, 16

	.file	22 "<stdin>"
	.section	".note.GNU-stack","",%progbits