	.text
	.syntax unified
	.eabi_attribute	67, "2.09"	@ Tag_conformance
	.eabi_attribute	6, 10	@ Tag_CPU_arch
	.eabi_attribute	7, 65	@ Tag_CPU_arch_profile
	.eabi_attribute	8, 1	@ Tag_ARM_ISA_use
	.eabi_attribute	9, 2	@ Tag_THUMB_ISA_use
	.fpu	neon
	.eabi_attribute	34, 1	@ Tag_CPU_unaligned_access
	.eabi_attribute	15, 1	@ Tag_ABI_PCS_RW_data
	.eabi_attribute	16, 1	@ Tag_ABI_PCS_RO_data
	.eabi_attribute	17, 2	@ Tag_ABI_PCS_GOT_use
	.eabi_attribute	20, 1	@ Tag_ABI_FP_denormal
	.eabi_attribute	21, 1	@ Tag_ABI_FP_exceptions
	.eabi_attribute	23, 3	@ Tag_ABI_FP_number_model
	.eabi_attribute	24, 1	@ Tag_ABI_align_needed
	.eabi_attribute	25, 1	@ Tag_ABI_align_preserved
	.eabi_attribute	38, 1	@ Tag_ABI_FP_16bit_format
	.eabi_attribute	18, 4	@ Tag_ABI_PCS_wchar_t
	.eabi_attribute	26, 2	@ Tag_ABI_enum_size
	.eabi_attribute	14, 0	@ Tag_ABI_PCS_R9_use
	.file	"AudioData.cpp"
	.file	1 "/Users/bytedance" "Library/Android/sdk/ndk/21.4.7075529/toolchains/llvm/prebuilt/darwin-x86_64/sysroot/usr/include/c++/v1/__nullptr"
	.file	2 "/Users/bytedance" "Library/Android/sdk/ndk/21.4.7075529/toolchains/llvm/prebuilt/darwin-x86_64/sysroot/usr/include/c++/v1/stddef.h"
	.section	.text._ZN9AudioData7WriteToEPc,"ax",%progbits
	.globl	_ZN9AudioData7WriteToEPc @ -- Begin function _ZN9AudioData7WriteToEPc
	.p2align	1
	.type	_ZN9AudioData7WriteToEPc,%function
	.code	16                      @ @_ZN9AudioData7WriteToEPc
	.thumb_func
_ZN9AudioData7WriteToEPc:
.Lfunc_begin0:
	.file	3 "/Users/bytedance/code/my/LiveStream/AndroidPublisher/rtmplive" "src/main/cpp/AudioData.cpp"
	.loc	3 7 0                   @ src/main/cpp/AudioData.cpp:7:0
	.fnstart
	.cfi_sections .debug_frame
	.cfi_startproc
@ %bb.0:
	.save	{r7, lr}
	push	{r7, lr}
	.cfi_def_cfa_offset 8
	.cfi_offset lr, -4
	.cfi_offset r7, -8
	.setfp	r7, sp
	mov	r7, sp
	.cfi_def_cfa_register r7
	.pad	#8
	sub	sp, #8
	str	r0, [sp, #4]
	str	r1, [sp]
	ldr	r0, [sp, #4]
.Ltmp0:
	.loc	3 8 20 prologue_end     @ src/main/cpp/AudioData.cpp:8:20
	ldrb	r1, [r0, #4]
	.loc	3 9 22                  @ src/main/cpp/AudioData.cpp:9:22
	ldrb	r2, [r0, #5]
	.loc	3 10 22                 @ src/main/cpp/AudioData.cpp:10:22
	ldrb	r3, [r0, #6]
	.loc	3 11 21                 @ src/main/cpp/AudioData.cpp:11:21
	ldrb.w	r12, [r0, #7]
	.loc	3 8 40                  @ src/main/cpp/AudioData.cpp:8:40
	lsls	r1, r1, #4
	.loc	3 9 19                  @ src/main/cpp/AudioData.cpp:9:19
	orr.w	r1, r1, r2, lsl #2
	.loc	3 10 19                 @ src/main/cpp/AudioData.cpp:10:19
	orr.w	r1, r1, r3, lsl #1
	.loc	3 11 19                 @ src/main/cpp/AudioData.cpp:11:19
	orr.w	r1, r1, r12
	.loc	3 8 13                  @ src/main/cpp/AudioData.cpp:8:13
	ldr	r2, [sp]
	adds	r3, r2, #1
	str	r3, [sp]
	.loc	3 8 17 is_stmt 0        @ src/main/cpp/AudioData.cpp:8:17
	strb	r1, [r2]
	.loc	3 12 12 is_stmt 1       @ src/main/cpp/AudioData.cpp:12:12
	ldr	r0, [r0, #8]
	.loc	3 12 33 is_stmt 0       @ src/main/cpp/AudioData.cpp:12:33
	ldr	r1, [sp]
	.loc	3 12 25                 @ src/main/cpp/AudioData.cpp:12:25
	ldr	r2, [r0]
	ldr	r2, [r2]
	blx	r2
	.loc	3 12 5                  @ src/main/cpp/AudioData.cpp:12:5
	add	sp, #8
	pop	{r7, pc}
.Ltmp1:
.Lfunc_end0:
	.size	_ZN9AudioData7WriteToEPc, .Lfunc_end0-_ZN9AudioData7WriteToEPc
	.cfi_endproc
	.file	4 "/Users/bytedance/code/my/LiveStream/AndroidPublisher/rtmplive" "src/main/cpp/IBuffer.h"
	.file	5 "/Users/bytedance/code/my/LiveStream/AndroidPublisher/rtmplive" "src/main/cpp/IFLVTagData.h"
	.file	6 "/Users/bytedance" "Library/Android/sdk/ndk/21.4.7075529/toolchains/llvm/prebuilt/darwin-x86_64/sysroot/usr/include/stdint.h"
	.file	7 "/Users/bytedance/code/my/LiveStream/AndroidPublisher/rtmplive" "src/main/cpp/AudioData.h"
	.file	8 "/Users/bytedance/code/my/LiveStream/AndroidPublisher/rtmplive" "src/main/cpp/ISoundData.h"
	.fnend
                                        @ -- End function
	.section	.text._ZN9AudioDataC2EhhhhP10ISoundData,"ax",%progbits
	.globl	_ZN9AudioDataC2EhhhhP10ISoundData @ -- Begin function _ZN9AudioDataC2EhhhhP10ISoundData
	.p2align	2
	.type	_ZN9AudioDataC2EhhhhP10ISoundData,%function
	.code	16                      @ @_ZN9AudioDataC2EhhhhP10ISoundData
	.thumb_func
_ZN9AudioDataC2EhhhhP10ISoundData:
.Lfunc_begin1:
	.loc	3 18 0 is_stmt 1        @ src/main/cpp/AudioData.cpp:18:0
	.fnstart
	.cfi_startproc
@ %bb.0:
	.save	{r4, r5, r6, r7, lr}
	push	{r4, r5, r6, r7, lr}
	.cfi_def_cfa_offset 20
	.cfi_offset lr, -4
	.cfi_offset r7, -8
	.cfi_offset r6, -12
	.cfi_offset r5, -16
	.cfi_offset r4, -20
	.setfp	r7, sp, #12
	add	r7, sp, #12
	.cfi_def_cfa r7, 8
	.save	{r11}
	str	r11, [sp, #-4]!
	.cfi_offset r11, -24
	.pad	#32
	sub	sp, #32
	ldr.w	r12, [r7, #12]
	ldr.w	lr, [r7, #8]
	mov	r4, r3
	mov	r5, r2
	mov	r6, r1
	str	r0, [sp, #28]
	strb	r1, [r7, #-21]
	strb	r2, [r7, #-22]
	strb	r3, [r7, #-23]
	strb.w	lr, [sp, #24]
	ldr	r0, [sp, #28]
.Ltmp2:
	.loc	3 15 12 prologue_end    @ src/main/cpp/AudioData.cpp:15:12
	str	r0, [sp, #20]           @ 4-byte Spill
	str.w	r12, [sp, #16]          @ 4-byte Spill
	str	r4, [sp, #12]           @ 4-byte Spill
	str	r5, [sp, #8]            @ 4-byte Spill
	str	r6, [sp, #4]            @ 4-byte Spill
	bl	_ZN11IFLVTagDataC2Ev
	.loc	3 18 58                 @ src/main/cpp/AudioData.cpp:18:58
	ldr	r0, .LCPI1_0
.LPC1_0:
	add	r0, pc
	ldr	r0, [r0]
	adds	r0, #8
	ldr	r1, [sp, #20]           @ 4-byte Reload
	str	r0, [r1]
	.loc	3 17 23                 @ src/main/cpp/AudioData.cpp:17:23
	ldrb	r0, [r7, #-21]
	.loc	3 17 9 is_stmt 0        @ src/main/cpp/AudioData.cpp:17:9
	strb	r0, [r1, #4]
	.loc	3 17 50                 @ src/main/cpp/AudioData.cpp:17:50
	ldrb	r0, [r7, #-22]
	.loc	3 17 38                 @ src/main/cpp/AudioData.cpp:17:38
	strb	r0, [r1, #5]
	.loc	3 17 75                 @ src/main/cpp/AudioData.cpp:17:75
	ldrb	r0, [r7, #-23]
	.loc	3 17 63                 @ src/main/cpp/AudioData.cpp:17:63
	strb	r0, [r1, #6]
	.loc	3 18 21 is_stmt 1       @ src/main/cpp/AudioData.cpp:18:21
	ldrb.w	r0, [sp, #24]
	.loc	3 18 9 is_stmt 0        @ src/main/cpp/AudioData.cpp:18:9
	strb	r0, [r1, #7]
	.loc	3 18 46                 @ src/main/cpp/AudioData.cpp:18:46
	ldr	r0, [r7, #12]
	.loc	3 18 34                 @ src/main/cpp/AudioData.cpp:18:34
	str	r0, [r1, #8]
	.loc	3 19 1 is_stmt 1        @ src/main/cpp/AudioData.cpp:19:1
	mov	r0, r1
	add	sp, #32
	ldr	r11, [sp], #4
	pop	{r4, r5, r6, r7, pc}
.Ltmp3:
	.p2align	2
@ %bb.1:
	.loc	3 0 1 is_stmt 0         @ src/main/cpp/AudioData.cpp:0:1
.LCPI1_0:
.Ltmp4:
	.long	_ZTV9AudioData(GOT_PREL)-((.LPC1_0+4)-.Ltmp4)
.Lfunc_end1:
	.size	_ZN9AudioDataC2EhhhhP10ISoundData, .Lfunc_end1-_ZN9AudioDataC2EhhhhP10ISoundData
	.cfi_endproc
	.fnend
                                        @ -- End function
	.section	.text._ZN11IFLVTagDataC2Ev,"axG",%progbits,_ZN11IFLVTagDataC2Ev,comdat
	.weak	_ZN11IFLVTagDataC2Ev    @ -- Begin function _ZN11IFLVTagDataC2Ev
	.p2align	2
	.type	_ZN11IFLVTagDataC2Ev,%function
	.code	16                      @ @_ZN11IFLVTagDataC2Ev
	.thumb_func
_ZN11IFLVTagDataC2Ev:
.Lfunc_begin2:
	.loc	5 10 0 is_stmt 1        @ src/main/cpp/IFLVTagData.h:10:0
	.fnstart
	.cfi_startproc
@ %bb.0:
	.save	{r7, lr}
	push	{r7, lr}
	.cfi_def_cfa_offset 8
	.cfi_offset lr, -4
	.cfi_offset r7, -8
	.setfp	r7, sp
	mov	r7, sp
	.cfi_def_cfa_register r7
	.pad	#8
	sub	sp, #8
	str	r0, [sp, #4]
	ldr	r0, [sp, #4]
.Ltmp5:
	.loc	5 10 7 prologue_end     @ src/main/cpp/IFLVTagData.h:10:7
	str	r0, [sp]                @ 4-byte Spill
	bl	_ZN7IBufferC2Ev
	ldr	r0, .LCPI2_0
.LPC2_0:
	add	r0, pc
	ldr	r0, [r0]
	adds	r0, #8
	ldr	r1, [sp]                @ 4-byte Reload
	str	r0, [r1]
	mov	r0, r1
	add	sp, #8
	pop	{r7, pc}
.Ltmp6:
	.p2align	2
@ %bb.1:
	.loc	5 0 7 is_stmt 0         @ src/main/cpp/IFLVTagData.h:0:7
.LCPI2_0:
.Ltmp7:
	.long	_ZTV11IFLVTagData(GOT_PREL)-((.LPC2_0+4)-.Ltmp7)
.Lfunc_end2:
	.size	_ZN11IFLVTagDataC2Ev, .Lfunc_end2-_ZN11IFLVTagDataC2Ev
	.cfi_endproc
	.fnend
                                        @ -- End function
	.section	.text._ZN9AudioDataD2Ev,"ax",%progbits
	.globl	_ZN9AudioDataD2Ev       @ -- Begin function _ZN9AudioDataD2Ev
	.p2align	1
	.type	_ZN9AudioDataD2Ev,%function
	.code	16                      @ @_ZN9AudioDataD2Ev
	.thumb_func
_ZN9AudioDataD2Ev:
.Lfunc_begin3:
	.loc	3 21 0 is_stmt 1        @ src/main/cpp/AudioData.cpp:21:0
	.fnstart
	.cfi_startproc
@ %bb.0:
	.pad	#4
	sub	sp, #4
	.cfi_def_cfa_offset 4
	str	r0, [sp]
	ldr	r0, [sp]
.Ltmp8:
	.loc	3 22 1 prologue_end     @ src/main/cpp/AudioData.cpp:22:1
	add	sp, #4
	bx	lr
.Ltmp9:
.Lfunc_end3:
	.size	_ZN9AudioDataD2Ev, .Lfunc_end3-_ZN9AudioDataD2Ev
	.cfi_endproc
	.fnend
                                        @ -- End function
	.section	.text._ZN9AudioDataD0Ev,"ax",%progbits
	.globl	_ZN9AudioDataD0Ev       @ -- Begin function _ZN9AudioDataD0Ev
	.p2align	1
	.type	_ZN9AudioDataD0Ev,%function
	.code	16                      @ @_ZN9AudioDataD0Ev
	.thumb_func
_ZN9AudioDataD0Ev:
.Lfunc_begin4:
	.loc	3 21 0                  @ src/main/cpp/AudioData.cpp:21:0
	.fnstart
	.cfi_startproc
@ %bb.0:
	.save	{r7, lr}
	push	{r7, lr}
	.cfi_def_cfa_offset 8
	.cfi_offset lr, -4
	.cfi_offset r7, -8
	.setfp	r7, sp
	mov	r7, sp
	.cfi_def_cfa_register r7
	.pad	#16
	sub	sp, #16
	str	r0, [sp, #12]
	ldr	r0, [sp, #12]
.Ltmp10:
	.loc	3 21 25 prologue_end    @ src/main/cpp/AudioData.cpp:21:25
	str	r0, [sp, #8]            @ 4-byte Spill
	bl	_ZN9AudioDataD1Ev
	ldr	r1, [sp, #8]            @ 4-byte Reload
	str	r0, [sp, #4]            @ 4-byte Spill
	mov	r0, r1
	bl	_ZdlPv
	.loc	3 22 1                  @ src/main/cpp/AudioData.cpp:22:1
	add	sp, #16
	pop	{r7, pc}
.Ltmp11:
.Lfunc_end4:
	.size	_ZN9AudioDataD0Ev, .Lfunc_end4-_ZN9AudioDataD0Ev
	.cfi_endproc
	.fnend
                                        @ -- End function
	.section	.text._ZN9AudioData4SizeEv,"ax",%progbits
	.globl	_ZN9AudioData4SizeEv    @ -- Begin function _ZN9AudioData4SizeEv
	.p2align	1
	.type	_ZN9AudioData4SizeEv,%function
	.code	16                      @ @_ZN9AudioData4SizeEv
	.thumb_func
_ZN9AudioData4SizeEv:
.Lfunc_begin5:
	.loc	3 24 0                  @ src/main/cpp/AudioData.cpp:24:0
	.fnstart
	.cfi_startproc
@ %bb.0:
	.save	{r7, lr}
	push	{r7, lr}
	.cfi_def_cfa_offset 8
	.cfi_offset lr, -4
	.cfi_offset r7, -8
	.setfp	r7, sp
	mov	r7, sp
	.cfi_def_cfa_register r7
	.pad	#8
	sub	sp, #8
	str	r0, [sp, #4]
	ldr	r0, [sp, #4]
.Ltmp12:
	.loc	3 25 16 prologue_end    @ src/main/cpp/AudioData.cpp:25:16
	ldr	r0, [r0, #8]
	.loc	3 25 29 is_stmt 0       @ src/main/cpp/AudioData.cpp:25:29
	ldr	r1, [r0]
	ldr	r1, [r1, #4]
	blx	r1
	.loc	3 25 14                 @ src/main/cpp/AudioData.cpp:25:14
	adds	r0, #1
	.loc	3 25 5                  @ src/main/cpp/AudioData.cpp:25:5
	add	sp, #8
	pop	{r7, pc}
.Ltmp13:
.Lfunc_end5:
	.size	_ZN9AudioData4SizeEv, .Lfunc_end5-_ZN9AudioData4SizeEv
	.cfi_endproc
	.fnend
                                        @ -- End function
	.section	.text._ZN7IBufferC2Ev,"axG",%progbits,_ZN7IBufferC2Ev,comdat
	.weak	_ZN7IBufferC2Ev         @ -- Begin function _ZN7IBufferC2Ev
	.p2align	2
	.type	_ZN7IBufferC2Ev,%function
	.code	16                      @ @_ZN7IBufferC2Ev
	.thumb_func
_ZN7IBufferC2Ev:
.Lfunc_begin6:
	.loc	4 9 0 is_stmt 1         @ src/main/cpp/IBuffer.h:9:0
	.fnstart
	.cfi_startproc
@ %bb.0:
	.pad	#4
	sub	sp, #4
	.cfi_def_cfa_offset 4
	str	r0, [sp]
	ldr	r0, [sp]
.Ltmp14:
	.loc	4 9 7 prologue_end      @ src/main/cpp/IBuffer.h:9:7
	ldr	r1, .LCPI6_0
.LPC6_0:
	add	r1, pc
	ldr	r1, [r1]
	adds	r1, #8
	str	r1, [r0]
	add	sp, #4
	bx	lr
.Ltmp15:
	.p2align	2
@ %bb.1:
	.loc	4 0 7 is_stmt 0         @ src/main/cpp/IBuffer.h:0:7
.LCPI6_0:
.Ltmp16:
	.long	_ZTV7IBuffer(GOT_PREL)-((.LPC6_0+4)-.Ltmp16)
.Lfunc_end6:
	.size	_ZN7IBufferC2Ev, .Lfunc_end6-_ZN7IBufferC2Ev
	.cfi_endproc
	.fnend
                                        @ -- End function
	.type	_ZTV9AudioData,%object  @ @_ZTV9AudioData
	.section	.data.rel.ro._ZTV9AudioData,"aw",%progbits
	.globl	_ZTV9AudioData
	.p2align	2
_ZTV9AudioData:
	.long	0
	.long	_ZTI9AudioData
	.long	_ZN9AudioData7WriteToEPc
	.long	_ZN9AudioData4SizeEv
	.long	_ZN9AudioDataD1Ev
	.long	_ZN9AudioDataD0Ev
	.size	_ZTV9AudioData, 24

	.type	_ZTS9AudioData,%object  @ @_ZTS9AudioData
	.section	.rodata._ZTS9AudioData,"a",%progbits
	.globl	_ZTS9AudioData
_ZTS9AudioData:
	.asciz	"9AudioData"
	.size	_ZTS9AudioData, 11

	.type	_ZTS11IFLVTagData,%object @ @_ZTS11IFLVTagData
	.section	.rodata._ZTS11IFLVTagData,"aG",%progbits,_ZTS11IFLVTagData,comdat
	.weak	_ZTS11IFLVTagData
_ZTS11IFLVTagData:
	.asciz	"11IFLVTagData"
	.size	_ZTS11IFLVTagData, 14

	.type	_ZTS7IBuffer,%object    @ @_ZTS7IBuffer
	.section	.rodata._ZTS7IBuffer,"aG",%progbits,_ZTS7IBuffer,comdat
	.weak	_ZTS7IBuffer
_ZTS7IBuffer:
	.asciz	"7IBuffer"
	.size	_ZTS7IBuffer, 9

	.type	_ZTI7IBuffer,%object    @ @_ZTI7IBuffer
	.section	.data.rel.ro._ZTI7IBuffer,"aGw",%progbits,_ZTI7IBuffer,comdat
	.weak	_ZTI7IBuffer
	.p2align	2
_ZTI7IBuffer:
	.long	_ZTVN10__cxxabiv117__class_type_infoE+8
	.long	_ZTS7IBuffer
	.size	_ZTI7IBuffer, 8

	.type	_ZTI11IFLVTagData,%object @ @_ZTI11IFLVTagData
	.section	.data.rel.ro._ZTI11IFLVTagData,"aGw",%progbits,_ZTI11IFLVTagData,comdat
	.weak	_ZTI11IFLVTagData
	.p2align	2
_ZTI11IFLVTagData:
	.long	_ZTVN10__cxxabiv120__si_class_type_infoE+8
	.long	_ZTS11IFLVTagData
	.long	_ZTI7IBuffer
	.size	_ZTI11IFLVTagData, 12

	.type	_ZTI9AudioData,%object  @ @_ZTI9AudioData
	.section	.data.rel.ro._ZTI9AudioData,"aw",%progbits
	.globl	_ZTI9AudioData
	.p2align	2
_ZTI9AudioData:
	.long	_ZTVN10__cxxabiv120__si_class_type_infoE+8
	.long	_ZTS9AudioData
	.long	_ZTI11IFLVTagData
	.size	_ZTI9AudioData, 12

	.type	_ZTV11IFLVTagData,%object @ @_ZTV11IFLVTagData
	.section	.data.rel.ro._ZTV11IFLVTagData,"aGw",%progbits,_ZTV11IFLVTagData,comdat
	.weak	_ZTV11IFLVTagData
	.p2align	2
_ZTV11IFLVTagData:
	.long	0
	.long	_ZTI11IFLVTagData
	.long	__cxa_pure_virtual
	.long	__cxa_pure_virtual
	.size	_ZTV11IFLVTagData, 16

	.type	_ZTV7IBuffer,%object    @ @_ZTV7IBuffer
	.section	.data.rel.ro._ZTV7IBuffer,"aGw",%progbits,_ZTV7IBuffer,comdat
	.weak	_ZTV7IBuffer
	.p2align	2
_ZTV7IBuffer:
	.long	0
	.long	_ZTI7IBuffer
	.long	__cxa_pure_virtual
	.long	__cxa_pure_virtual
	.size	_ZTV7IBuffer, 16

	.file	9 "<stdin>"
	.section	".note.GNU-stack","",%progbits