	.text
	.syntax unified
	.eabi_attribute	67, "2.09"	@ Tag_conformance
	.eabi_attribute	6, 10	@ Tag_CPU_arch
	.eabi_attribute	7, 65	@ Tag_CPU_arch_profile
	.eabi_attribute	8, 1	@ Tag_ARM_ISA_use
	.eabi_attribute	9, 2	@ Tag_THUMB_ISA_use
	.fpu	neon
	.eabi_attribute	34, 1	@ Tag_CPU_unaligned_access
	.eabi_attribute	15, 1	@ Tag_ABI_PCS_RW_data
	.eabi_attribute	16, 1	@ Tag_ABI_PCS_RO_data
	.eabi_attribute	17, 2	@ Tag_ABI_PCS_GOT_use
	.eabi_attribute	20, 1	@ Tag_ABI_FP_denormal
	.eabi_attribute	21, 1	@ Tag_ABI_FP_exceptions
	.eabi_attribute	23, 3	@ Tag_ABI_FP_number_model
	.eabi_attribute	24, 1	@ Tag_ABI_align_needed
	.eabi_attribute	25, 1	@ Tag_ABI_align_preserved
	.eabi_attribute	38, 1	@ Tag_ABI_FP_16bit_format
	.eabi_attribute	18, 4	@ Tag_ABI_PCS_wchar_t
	.eabi_attribute	26, 2	@ Tag_ABI_enum_size
	.eabi_attribute	14, 0	@ Tag_ABI_PCS_R9_use
	.file	"AVCDecoderConfiguration.cpp"
	.file	1 "/Users/bytedance" "Library/Android/sdk/ndk/21.4.7075529/toolchains/llvm/prebuilt/darwin-x86_64/sysroot/usr/include/android/log.h"
	.file	2 "/Users/bytedance" "Library/Android/sdk/ndk/21.4.7075529/toolchains/llvm/prebuilt/darwin-x86_64/sysroot/usr/include/c++/v1/__nullptr"
	.file	3 "/Users/bytedance" "Library/Android/sdk/ndk/21.4.7075529/toolchains/llvm/prebuilt/darwin-x86_64/sysroot/usr/include/c++/v1/stddef.h"
	.file	4 "/Users/bytedance" "Library/Android/sdk/ndk/21.4.7075529/toolchains/llvm/prebuilt/darwin-x86_64/lib64/clang/9.0.9/include/stddef.h"
	.file	5 "/Users/bytedance" "Library/Android/sdk/ndk/21.4.7075529/toolchains/llvm/prebuilt/darwin-x86_64/sysroot/usr/include/c++/v1/cstddef"
	.file	6 "/Users/bytedance" "Library/Android/sdk/ndk/21.4.7075529/toolchains/llvm/prebuilt/darwin-x86_64/lib64/clang/9.0.9/include/__stddef_max_align_t.h"
	.file	7 "/Users/bytedance" "Library/Android/sdk/ndk/21.4.7075529/toolchains/llvm/prebuilt/darwin-x86_64/sysroot/usr/include/c++/v1/cstdlib"
	.file	8 "/Users/bytedance" "Library/Android/sdk/ndk/21.4.7075529/toolchains/llvm/prebuilt/darwin-x86_64/sysroot/usr/include/stdlib.h"
	.file	9 "/Users/bytedance" "Library/Android/sdk/ndk/21.4.7075529/toolchains/llvm/prebuilt/darwin-x86_64/sysroot/usr/include/android/legacy_stdlib_inlines.h"
	.file	10 "/Users/bytedance" "Library/Android/sdk/ndk/21.4.7075529/toolchains/llvm/prebuilt/darwin-x86_64/sysroot/usr/include/malloc.h"
	.file	11 "/Users/bytedance" "Library/Android/sdk/ndk/21.4.7075529/toolchains/llvm/prebuilt/darwin-x86_64/sysroot/usr/include/c++/v1/math.h"
	.file	12 "/Users/bytedance" "Library/Android/sdk/ndk/21.4.7075529/toolchains/llvm/prebuilt/darwin-x86_64/sysroot/usr/local/include/stdlib.h"
	.file	13 "/Users/bytedance" "Library/Android/sdk/ndk/21.4.7075529/toolchains/llvm/prebuilt/darwin-x86_64/sysroot/usr/include/stdint.h"
	.file	14 "/Users/bytedance" "Library/Android/sdk/ndk/21.4.7075529/toolchains/llvm/prebuilt/darwin-x86_64/sysroot/usr/include/c++/v1/cstdint"
	.file	15 "/Users/bytedance" "Library/Android/sdk/ndk/21.4.7075529/toolchains/llvm/prebuilt/darwin-x86_64/sysroot/usr/include/c++/v1/cstring"
	.file	16 "/Users/bytedance" "Library/Android/sdk/ndk/21.4.7075529/toolchains/llvm/prebuilt/darwin-x86_64/sysroot/usr/include/string.h"
	.file	17 "/Users/bytedance" "Library/Android/sdk/ndk/21.4.7075529/toolchains/llvm/prebuilt/darwin-x86_64/sysroot/usr/include/bits/fortify/string.h"
	.file	18 "/Users/bytedance" "Library/Android/sdk/ndk/21.4.7075529/toolchains/llvm/prebuilt/darwin-x86_64/sysroot/usr/include/c++/v1/string.h"
	.section	.text._ZN23AVCDecoderConfigurationC2ER10H264Params,"ax",%progbits
	.globl	_ZN23AVCDecoderConfigurationC2ER10H264Params @ -- Begin function _ZN23AVCDecoderConfigurationC2ER10H264Params
	.p2align	2
	.type	_ZN23AVCDecoderConfigurationC2ER10H264Params,%function
	.code	16                      @ @_ZN23AVCDecoderConfigurationC2ER10H264Params
	.thumb_func
_ZN23AVCDecoderConfigurationC2ER10H264Params:
.Lfunc_begin0:
	.file	19 "/Users/bytedance/code/my/LiveStream/AndroidPublisher/rtmplive" "src/main/cpp/AVCDecoderConfiguration.cpp"
	.loc	19 60 0                 @ src/main/cpp/AVCDecoderConfiguration.cpp:60:0
	.fnstart
	.cfi_sections .debug_frame
	.cfi_startproc
@ %bb.0:
	.save	{r4, r5, r7, lr}
	push	{r4, r5, r7, lr}
	.cfi_def_cfa_offset 16
	.cfi_offset lr, -4
	.cfi_offset r7, -8
	.cfi_offset r5, -12
	.cfi_offset r4, -16
	.setfp	r7, sp, #8
	add	r7, sp, #8
	.cfi_def_cfa r7, 8
	.pad	#32
	sub	sp, #32
	str	r0, [sp, #28]
	str	r1, [sp, #24]
	ldr	r0, [sp, #28]
.Ltmp0:
	.loc	19 60 26 prologue_end   @ src/main/cpp/AVCDecoderConfiguration.cpp:60:26
	str	r0, [sp, #20]           @ 4-byte Spill
	bl	_ZN14IAVCPacketDataC2Ev
	.loc	19 60 70 is_stmt 0      @ src/main/cpp/AVCDecoderConfiguration.cpp:60:70
	ldr	r0, .LCPI0_0
.LPC0_0:
	add	r0, pc
	ldr	r0, [r0]
	adds	r0, #8
	ldr	r1, [sp, #20]           @ 4-byte Reload
	str	r0, [r1], #4
.Ltmp1:
	.loc	19 61 20 is_stmt 1      @ src/main/cpp/AVCDecoderConfiguration.cpp:61:20
	ldr	r0, [sp, #24]
	.loc	19 61 47 is_stmt 0      @ src/main/cpp/AVCDecoderConfiguration.cpp:61:47
	ldr	r2, [r0]
	.loc	19 61 27                @ src/main/cpp/AVCDecoderConfiguration.cpp:61:27
	ldr	r3, [r0, #4]
	.loc	19 61 80                @ src/main/cpp/AVCDecoderConfiguration.cpp:61:80
	ldr.w	r12, [r0, #8]
	.loc	19 61 60                @ src/main/cpp/AVCDecoderConfiguration.cpp:61:60
	ldr	r0, [r0, #12]
	.loc	19 62 27 is_stmt 1      @ src/main/cpp/AVCDecoderConfiguration.cpp:62:27
	ldr.w	lr, [sp, #20]           @ 4-byte Reload
	addw	r4, lr, #1028
	.loc	19 61 5                 @ src/main/cpp/AVCDecoderConfiguration.cpp:61:5
	mov	r5, sp
	str	r4, [r5, #4]
	str	r1, [r5]
	str	r0, [sp, #16]           @ 4-byte Spill
	mov	r0, r3
	mov	r1, r2
	ldr	r2, [sp, #16]           @ 4-byte Reload
	mov	r3, r12
	bl	_ZN23AVCDecoderConfiguration14ParseSPSAndPPSEiPhiS0_S0_Pi
.Ltmp2:
	.loc	19 63 1                 @ src/main/cpp/AVCDecoderConfiguration.cpp:63:1
	ldr	r1, [sp, #20]           @ 4-byte Reload
	str	r0, [sp, #12]           @ 4-byte Spill
	mov	r0, r1
	add	sp, #32
	pop	{r4, r5, r7, pc}
.Ltmp3:
	.p2align	2
@ %bb.1:
	.loc	19 0 1 is_stmt 0        @ src/main/cpp/AVCDecoderConfiguration.cpp:0:1
.LCPI0_0:
.Ltmp4:
	.long	_ZTV23AVCDecoderConfiguration(GOT_PREL)-((.LPC0_0+4)-.Ltmp4)
.Lfunc_end0:
	.size	_ZN23AVCDecoderConfigurationC2ER10H264Params, .Lfunc_end0-_ZN23AVCDecoderConfigurationC2ER10H264Params
	.cfi_endproc
	.file	20 "/Users/bytedance/code/my/LiveStream/AndroidPublisher/rtmplive" "src/main/cpp/IBuffer.h"
	.file	21 "/Users/bytedance/code/my/LiveStream/AndroidPublisher/rtmplive" "src/main/cpp/IAVCPacketData.h"
	.file	22 "/Users/bytedance/code/my/LiveStream/AndroidPublisher/rtmplive" "src/main/cpp/AVCDecoderConfiguration.h"
	.file	23 "/Users/bytedance/code/my/LiveStream/AndroidPublisher/rtmplive" "src/main/cpp/H264Params.h"
	.fnend
                                        @ -- End function
	.section	.text._ZN14IAVCPacketDataC2Ev,"axG",%progbits,_ZN14IAVCPacketDataC2Ev,comdat
	.weak	_ZN14IAVCPacketDataC2Ev @ -- Begin function _ZN14IAVCPacketDataC2Ev
	.p2align	2
	.type	_ZN14IAVCPacketDataC2Ev,%function
	.code	16                      @ @_ZN14IAVCPacketDataC2Ev
	.thumb_func
_ZN14IAVCPacketDataC2Ev:
.Lfunc_begin1:
	.loc	21 11 0 is_stmt 1       @ src/main/cpp/IAVCPacketData.h:11:0
	.fnstart
	.cfi_startproc
@ %bb.0:
	.save	{r7, lr}
	push	{r7, lr}
	.cfi_def_cfa_offset 8
	.cfi_offset lr, -4
	.cfi_offset r7, -8
	.setfp	r7, sp
	mov	r7, sp
	.cfi_def_cfa_register r7
	.pad	#8
	sub	sp, #8
	str	r0, [sp, #4]
	ldr	r0, [sp, #4]
.Ltmp5:
	.loc	21 11 7 prologue_end    @ src/main/cpp/IAVCPacketData.h:11:7
	str	r0, [sp]                @ 4-byte Spill
	bl	_ZN7IBufferC2Ev
	ldr	r0, .LCPI1_0
.LPC1_0:
	add	r0, pc
	ldr	r0, [r0]
	adds	r0, #8
	ldr	r1, [sp]                @ 4-byte Reload
	str	r0, [r1]
	mov	r0, r1
	add	sp, #8
	pop	{r7, pc}
.Ltmp6:
	.p2align	2
@ %bb.1:
	.loc	21 0 7 is_stmt 0        @ src/main/cpp/IAVCPacketData.h:0:7
.LCPI1_0:
.Ltmp7:
	.long	_ZTV14IAVCPacketData(GOT_PREL)-((.LPC1_0+4)-.Ltmp7)
.Lfunc_end1:
	.size	_ZN14IAVCPacketDataC2Ev, .Lfunc_end1-_ZN14IAVCPacketDataC2Ev
	.cfi_endproc
	.fnend
                                        @ -- End function
	.section	.text._ZN23AVCDecoderConfiguration14ParseSPSAndPPSEiPhiS0_S0_Pi,"axG",%progbits,_ZN23AVCDecoderConfiguration14ParseSPSAndPPSEiPhiS0_S0_Pi,comdat
	.weak	_ZN23AVCDecoderConfiguration14ParseSPSAndPPSEiPhiS0_S0_Pi @ -- Begin function _ZN23AVCDecoderConfiguration14ParseSPSAndPPSEiPhiS0_S0_Pi
	.p2align	2
	.type	_ZN23AVCDecoderConfiguration14ParseSPSAndPPSEiPhiS0_S0_Pi,%function
	.code	16                      @ @_ZN23AVCDecoderConfiguration14ParseSPSAndPPSEiPhiS0_S0_Pi
	.thumb_func
_ZN23AVCDecoderConfiguration14ParseSPSAndPPSEiPhiS0_S0_Pi:
.Lfunc_begin2:
	.loc	19 11 0 is_stmt 1       @ src/main/cpp/AVCDecoderConfiguration.cpp:11:0
	.fnstart
	.cfi_startproc
@ %bb.0:
	.save	{r4, r6, r7, lr}
	push	{r4, r6, r7, lr}
	.cfi_def_cfa_offset 16
	.cfi_offset lr, -4
	.cfi_offset r7, -8
	.cfi_offset r6, -12
	.cfi_offset r4, -16
	.setfp	r7, sp, #8
	add	r7, sp, #8
	.cfi_def_cfa r7, 8
	.pad	#112
	sub	sp, #112
	ldr.w	r12, [r7, #12]
	ldr.w	lr, [r7, #8]
	ldr	r4, .LCPI2_0
.LPC2_0:
	add	r4, pc
	ldr	r4, [r4]
	ldr	r4, [r4]
	str	r4, [sp, #108]
	str	r0, [sp, #88]
	str	r1, [sp, #84]
	str	r2, [sp, #80]
	str	r3, [sp, #76]
.Ltmp23:
	.loc	19 14 24 prologue_end   @ src/main/cpp/AVCDecoderConfiguration.cpp:14:24
	ldr	r0, [sp, #84]
	ldrb	r0, [r0]
	.loc	19 14 10 is_stmt 0      @ src/main/cpp/AVCDecoderConfiguration.cpp:14:10
	strb	r0, [r7, #-45]
	movs	r0, #0
	.loc	19 15 9 is_stmt 1       @ src/main/cpp/AVCDecoderConfiguration.cpp:15:9
	str	r0, [sp, #104]
	.loc	19 16 5                 @ src/main/cpp/AVCDecoderConfiguration.cpp:16:5
	ldr	r0, [r7, #8]
	.loc	19 16 13 is_stmt 0      @ src/main/cpp/AVCDecoderConfiguration.cpp:16:13
	ldr	r1, [sp, #104]
	adds	r2, r1, #1
	str	r2, [sp, #104]
	movs	r2, #1
	.loc	19 16 17                @ src/main/cpp/AVCDecoderConfiguration.cpp:16:17
	strb	r2, [r0, r1]
	.loc	19 17 19 is_stmt 1      @ src/main/cpp/AVCDecoderConfiguration.cpp:17:19
	ldr	r0, [sp, #84]
	ldrb	r0, [r0, #1]
	.loc	19 17 5 is_stmt 0       @ src/main/cpp/AVCDecoderConfiguration.cpp:17:5
	ldr	r1, [r7, #8]
	.loc	19 17 13                @ src/main/cpp/AVCDecoderConfiguration.cpp:17:13
	ldr	r3, [sp, #104]
	adds	r4, r3, #1
	str	r4, [sp, #104]
	.loc	19 17 17                @ src/main/cpp/AVCDecoderConfiguration.cpp:17:17
	strb	r0, [r1, r3]
	.loc	19 18 19 is_stmt 1      @ src/main/cpp/AVCDecoderConfiguration.cpp:18:19
	ldr	r0, [sp, #84]
	ldrb	r0, [r0, #2]
	.loc	19 18 5 is_stmt 0       @ src/main/cpp/AVCDecoderConfiguration.cpp:18:5
	ldr	r1, [r7, #8]
	.loc	19 18 13                @ src/main/cpp/AVCDecoderConfiguration.cpp:18:13
	ldr	r3, [sp, #104]
	adds	r4, r3, #1
	str	r4, [sp, #104]
	.loc	19 18 17                @ src/main/cpp/AVCDecoderConfiguration.cpp:18:17
	strb	r0, [r1, r3]
	.loc	19 19 19 is_stmt 1      @ src/main/cpp/AVCDecoderConfiguration.cpp:19:19
	ldr	r0, [sp, #84]
	ldrb	r0, [r0, #3]
	.loc	19 19 5 is_stmt 0       @ src/main/cpp/AVCDecoderConfiguration.cpp:19:5
	ldr	r1, [r7, #8]
	.loc	19 19 13                @ src/main/cpp/AVCDecoderConfiguration.cpp:19:13
	ldr	r3, [sp, #104]
	adds	r4, r3, #1
	str	r4, [sp, #104]
	.loc	19 19 17                @ src/main/cpp/AVCDecoderConfiguration.cpp:19:17
	strb	r0, [r1, r3]
	.loc	19 21 5 is_stmt 1       @ src/main/cpp/AVCDecoderConfiguration.cpp:21:5
	ldr	r0, [r7, #8]
	.loc	19 21 13 is_stmt 0      @ src/main/cpp/AVCDecoderConfiguration.cpp:21:13
	ldr	r1, [sp, #104]
	adds	r3, r1, #1
	str	r3, [sp, #104]
	movs	r3, #255
	.loc	19 21 17                @ src/main/cpp/AVCDecoderConfiguration.cpp:21:17
	strb	r3, [r0, r1]
	.loc	19 22 5 is_stmt 1       @ src/main/cpp/AVCDecoderConfiguration.cpp:22:5
	ldr	r0, [r7, #8]
	.loc	19 22 13 is_stmt 0      @ src/main/cpp/AVCDecoderConfiguration.cpp:22:13
	ldr	r1, [sp, #104]
	adds	r3, r1, #1
	str	r3, [sp, #104]
	movs	r3, #225
	.loc	19 22 17                @ src/main/cpp/AVCDecoderConfiguration.cpp:22:17
	strb	r3, [r0, r1]
	.loc	19 24 20 is_stmt 1      @ src/main/cpp/AVCDecoderConfiguration.cpp:24:20
	ldr	r0, [sp, #88]
	.loc	19 24 31 is_stmt 0      @ src/main/cpp/AVCDecoderConfiguration.cpp:24:31
	lsrs	r0, r0, #8
	.loc	19 24 5                 @ src/main/cpp/AVCDecoderConfiguration.cpp:24:5
	ldr	r1, [r7, #8]
	.loc	19 24 13                @ src/main/cpp/AVCDecoderConfiguration.cpp:24:13
	ldr	r3, [sp, #104]
	adds	r4, r3, #1
	str	r4, [sp, #104]
	.loc	19 24 17                @ src/main/cpp/AVCDecoderConfiguration.cpp:24:17
	strb	r0, [r1, r3]
	.loc	19 25 20 is_stmt 1      @ src/main/cpp/AVCDecoderConfiguration.cpp:25:20
	ldr	r0, [sp, #88]
	.loc	19 25 5 is_stmt 0       @ src/main/cpp/AVCDecoderConfiguration.cpp:25:5
	ldr	r1, [r7, #8]
	.loc	19 25 13                @ src/main/cpp/AVCDecoderConfiguration.cpp:25:13
	ldr	r3, [sp, #104]
	adds	r4, r3, #1
	str	r4, [sp, #104]
	.loc	19 25 17                @ src/main/cpp/AVCDecoderConfiguration.cpp:25:17
	strb	r0, [r1, r3]
	.loc	19 26 13 is_stmt 1      @ src/main/cpp/AVCDecoderConfiguration.cpp:26:13
	ldr	r0, [r7, #8]
	.loc	19 26 20 is_stmt 0      @ src/main/cpp/AVCDecoderConfiguration.cpp:26:20
	ldr	r1, [sp, #104]
	.loc	19 26 13                @ src/main/cpp/AVCDecoderConfiguration.cpp:26:13
	add	r0, r1
	.loc	19 26 24                @ src/main/cpp/AVCDecoderConfiguration.cpp:26:24
	ldr	r1, [sp, #84]
	.loc	19 26 29                @ src/main/cpp/AVCDecoderConfiguration.cpp:26:29
	ldr	r3, [sp, #88]
	.loc	19 26 5                 @ src/main/cpp/AVCDecoderConfiguration.cpp:26:5
	str	r2, [sp, #40]           @ 4-byte Spill
	mov	r2, r3
	str.w	r12, [sp, #36]          @ 4-byte Spill
	str.w	lr, [sp, #32]           @ 4-byte Spill
	bl	__aeabi_memcpy
	.loc	19 27 10 is_stmt 1      @ src/main/cpp/AVCDecoderConfiguration.cpp:27:10
	ldr	r1, [sp, #88]
	.loc	19 27 7 is_stmt 0       @ src/main/cpp/AVCDecoderConfiguration.cpp:27:7
	ldr	r2, [sp, #104]
	add	r1, r2
	str	r1, [sp, #104]
	.loc	19 29 5 is_stmt 1       @ src/main/cpp/AVCDecoderConfiguration.cpp:29:5
	ldr	r1, [r7, #8]
	.loc	19 29 13 is_stmt 0      @ src/main/cpp/AVCDecoderConfiguration.cpp:29:13
	ldr	r2, [sp, #104]
	adds	r3, r2, #1
	str	r3, [sp, #104]
	.loc	19 29 17                @ src/main/cpp/AVCDecoderConfiguration.cpp:29:17
	ldr	r3, [sp, #40]           @ 4-byte Reload
	strb	r3, [r1, r2]
	.loc	19 30 20 is_stmt 1      @ src/main/cpp/AVCDecoderConfiguration.cpp:30:20
	ldr	r1, [sp, #80]
	.loc	19 30 31 is_stmt 0      @ src/main/cpp/AVCDecoderConfiguration.cpp:30:31
	lsrs	r1, r1, #8
	.loc	19 30 5                 @ src/main/cpp/AVCDecoderConfiguration.cpp:30:5
	ldr	r2, [r7, #8]
	.loc	19 30 13                @ src/main/cpp/AVCDecoderConfiguration.cpp:30:13
	ldr.w	r12, [sp, #104]
	add.w	lr, r12, #1
	str.w	lr, [sp, #104]
	.loc	19 30 17                @ src/main/cpp/AVCDecoderConfiguration.cpp:30:17
	strb.w	r1, [r2, r12]
	.loc	19 31 20 is_stmt 1      @ src/main/cpp/AVCDecoderConfiguration.cpp:31:20
	ldr	r1, [sp, #80]
	.loc	19 31 5 is_stmt 0       @ src/main/cpp/AVCDecoderConfiguration.cpp:31:5
	ldr	r2, [r7, #8]
	.loc	19 31 13                @ src/main/cpp/AVCDecoderConfiguration.cpp:31:13
	ldr.w	r12, [sp, #104]
	add.w	lr, r12, #1
	str.w	lr, [sp, #104]
	.loc	19 31 17                @ src/main/cpp/AVCDecoderConfiguration.cpp:31:17
	strb.w	r1, [r2, r12]
	.loc	19 32 13 is_stmt 1      @ src/main/cpp/AVCDecoderConfiguration.cpp:32:13
	ldr	r1, [r7, #8]
	.loc	19 32 20 is_stmt 0      @ src/main/cpp/AVCDecoderConfiguration.cpp:32:20
	ldr	r2, [sp, #104]
	.loc	19 32 13                @ src/main/cpp/AVCDecoderConfiguration.cpp:32:13
	add	r1, r2
	.loc	19 32 24                @ src/main/cpp/AVCDecoderConfiguration.cpp:32:24
	ldr	r2, [sp, #76]
	.loc	19 32 29                @ src/main/cpp/AVCDecoderConfiguration.cpp:32:29
	ldr.w	r12, [sp, #80]
	.loc	19 32 5                 @ src/main/cpp/AVCDecoderConfiguration.cpp:32:5
	str	r0, [sp, #28]           @ 4-byte Spill
	mov	r0, r1
	mov	r1, r2
	mov	r2, r12
	bl	__aeabi_memcpy
	.loc	19 33 10 is_stmt 1      @ src/main/cpp/AVCDecoderConfiguration.cpp:33:10
	ldr	r1, [sp, #80]
	.loc	19 33 7 is_stmt 0       @ src/main/cpp/AVCDecoderConfiguration.cpp:33:7
	ldr	r2, [sp, #104]
	add	r1, r2
	str	r1, [sp, #104]
.Ltmp24:
	.loc	19 35 9 is_stmt 1       @ src/main/cpp/AVCDecoderConfiguration.cpp:35:9
	ldrb	r1, [r7, #-45]
	.loc	19 35 28 is_stmt 0      @ src/main/cpp/AVCDecoderConfiguration.cpp:35:28
	cmp	r1, #100
	beq	.LBB2_4
	b	.LBB2_1
.LBB2_1:
	.loc	19 35 31                @ src/main/cpp/AVCDecoderConfiguration.cpp:35:31
	ldrb	r0, [r7, #-45]
	.loc	19 35 50                @ src/main/cpp/AVCDecoderConfiguration.cpp:35:50
	cmp	r0, #110
	beq	.LBB2_4
	b	.LBB2_2
.LBB2_2:
	.loc	19 35 53                @ src/main/cpp/AVCDecoderConfiguration.cpp:35:53
	ldrb	r0, [r7, #-45]
	.loc	19 35 72                @ src/main/cpp/AVCDecoderConfiguration.cpp:35:72
	cmp	r0, #122
	beq	.LBB2_4
	b	.LBB2_3
.LBB2_3:
	.loc	19 35 75                @ src/main/cpp/AVCDecoderConfiguration.cpp:35:75
	ldrb	r0, [r7, #-45]
.Ltmp25:
	.loc	19 35 9                 @ src/main/cpp/AVCDecoderConfiguration.cpp:35:9
	cmp	r0, #144
	bne	.LBB2_23
	b	.LBB2_4
.LBB2_4:
.Ltmp26:
	.loc	19 39 30 is_stmt 1      @ src/main/cpp/AVCDecoderConfiguration.cpp:39:30
	ldr	r0, [sp, #84]
	adds	r1, r0, #4
	add	r0, sp, #92
	.loc	19 39 19 is_stmt 0      @ src/main/cpp/AVCDecoderConfiguration.cpp:39:19
	str	r0, [sp, #24]           @ 4-byte Spill
	bl	_ZN9BitStreamC1EPh
.Ltmp8:
	.loc	19 40 22 is_stmt 1      @ src/main/cpp/AVCDecoderConfiguration.cpp:40:22
	ldr	r0, [sp, #24]           @ 4-byte Reload
	bl	_ZN6Golomb5GetUeER9BitStream
.Ltmp9:
	str	r0, [sp, #20]           @ 4-byte Spill
	b	.LBB2_5
.LBB2_5:
	.loc	19 40 14 is_stmt 0      @ src/main/cpp/AVCDecoderConfiguration.cpp:40:14
	ldr	r0, [sp, #20]           @ 4-byte Reload
	str	r0, [sp, #68]
.Ltmp10:
	add	r0, sp, #92
	.loc	19 41 34 is_stmt 1      @ src/main/cpp/AVCDecoderConfiguration.cpp:41:34
	bl	_ZN6Golomb5GetUeER9BitStream
.Ltmp11:
	str	r0, [sp, #16]           @ 4-byte Spill
	b	.LBB2_6
.LBB2_6:
	.loc	19 41 14 is_stmt 0      @ src/main/cpp/AVCDecoderConfiguration.cpp:41:14
	ldr	r0, [sp, #16]           @ 4-byte Reload
	str	r0, [sp, #56]
.Ltmp27:
	.loc	19 42 13 is_stmt 1      @ src/main/cpp/AVCDecoderConfiguration.cpp:42:13
	ldr	r1, [sp, #56]
.Ltmp28:
	.loc	19 42 13 is_stmt 0      @ src/main/cpp/AVCDecoderConfiguration.cpp:42:13
	cmp	r1, #4
	blt	.LBB2_10
	b	.LBB2_7
.LBB2_7:
.Ltmp14:
.Ltmp29:
	.loc	19 43 13 is_stmt 1      @ src/main/cpp/AVCDecoderConfiguration.cpp:43:13
	ldr	r1, .LCPI2_1
.LPC2_1:
	add	r1, pc
	ldr	r2, .LCPI2_2
.LPC2_2:
	add	r2, pc
	movs	r0, #6
	bl	__android_log_print
.Ltmp15:
	b	.LBB2_8
.LBB2_8:
	.loc	19 44 9                 @ src/main/cpp/AVCDecoderConfiguration.cpp:44:9
	b	.LBB2_14
.Ltmp30:
.LBB2_9:
.Ltmp22:
	.loc	19 58 1                 @ src/main/cpp/AVCDecoderConfiguration.cpp:58:1
	str	r0, [sp, #64]
	str	r1, [sp, #60]
	add	r0, sp, #92
.Ltmp31:
	.loc	19 55 5                 @ src/main/cpp/AVCDecoderConfiguration.cpp:55:5
	bl	_ZN9BitStreamD1Ev
	b	.LBB2_25
.LBB2_10:
.Ltmp32:
	.loc	19 44 20                @ src/main/cpp/AVCDecoderConfiguration.cpp:44:20
	ldr	r0, [sp, #56]
.Ltmp33:
	.loc	19 44 20 is_stmt 0      @ src/main/cpp/AVCDecoderConfiguration.cpp:44:20
	cmp	r0, #3
	bne	.LBB2_13
	b	.LBB2_11
.LBB2_11:
.Ltmp12:
	.loc	19 0 20                 @ src/main/cpp/AVCDecoderConfiguration.cpp:0:20
	add	r0, sp, #92
	movs	r1, #1
.Ltmp34:
	.loc	19 45 60 is_stmt 1      @ src/main/cpp/AVCDecoderConfiguration.cpp:45:60
	bl	_ZN9BitStream8ReadBitsEi
.Ltmp13:
	str	r0, [sp, #12]           @ 4-byte Spill
	b	.LBB2_12
.LBB2_12:
	.loc	19 45 18 is_stmt 0      @ src/main/cpp/AVCDecoderConfiguration.cpp:45:18
	ldr	r0, [sp, #12]           @ 4-byte Reload
	str	r0, [sp, #52]
	.loc	19 46 9 is_stmt 1       @ src/main/cpp/AVCDecoderConfiguration.cpp:46:9
	b	.LBB2_13
.Ltmp35:
.LBB2_13:
	.loc	19 0 9 is_stmt 0        @ src/main/cpp/AVCDecoderConfiguration.cpp:0:9
	b	.LBB2_14
.LBB2_14:
.Ltmp16:
	add	r0, sp, #92
	.loc	19 47 27 is_stmt 1      @ src/main/cpp/AVCDecoderConfiguration.cpp:47:27
	bl	_ZN6Golomb5GetUeER9BitStream
.Ltmp17:
	str	r0, [sp, #8]            @ 4-byte Spill
	b	.LBB2_15
.LBB2_15:
	.loc	19 47 14 is_stmt 0      @ src/main/cpp/AVCDecoderConfiguration.cpp:47:14
	ldr	r0, [sp, #8]            @ 4-byte Reload
	str	r0, [sp, #48]
.Ltmp18:
	add	r0, sp, #92
	.loc	19 48 29 is_stmt 1      @ src/main/cpp/AVCDecoderConfiguration.cpp:48:29
	bl	_ZN6Golomb5GetUeER9BitStream
.Ltmp19:
	str	r0, [sp, #4]            @ 4-byte Spill
	b	.LBB2_16
.LBB2_16:
	.loc	19 48 14 is_stmt 0      @ src/main/cpp/AVCDecoderConfiguration.cpp:48:14
	ldr	r0, [sp, #4]            @ 4-byte Reload
	str	r0, [sp, #44]
.Ltmp36:
	.loc	19 49 13 is_stmt 1      @ src/main/cpp/AVCDecoderConfiguration.cpp:49:13
	ldr	r1, [sp, #48]
	.loc	19 49 28 is_stmt 0      @ src/main/cpp/AVCDecoderConfiguration.cpp:49:28
	cmp	r1, #8
	blt	.LBB2_20
	b	.LBB2_17
.LBB2_17:
	.loc	19 49 31                @ src/main/cpp/AVCDecoderConfiguration.cpp:49:31
	ldr	r0, [sp, #48]
	.loc	19 49 47                @ src/main/cpp/AVCDecoderConfiguration.cpp:49:47
	cmp	r0, #14
	bgt	.LBB2_20
	b	.LBB2_18
.LBB2_18:
	.loc	19 49 50                @ src/main/cpp/AVCDecoderConfiguration.cpp:49:50
	ldr	r0, [sp, #44]
	.loc	19 49 67                @ src/main/cpp/AVCDecoderConfiguration.cpp:49:67
	cmp	r0, #8
	blt	.LBB2_20
	b	.LBB2_19
.LBB2_19:
	.loc	19 49 70                @ src/main/cpp/AVCDecoderConfiguration.cpp:49:70
	ldr	r0, [sp, #44]
.Ltmp37:
	.loc	19 49 13                @ src/main/cpp/AVCDecoderConfiguration.cpp:49:13
	cmp	r0, #15
	blt	.LBB2_22
	b	.LBB2_20
.LBB2_20:
.Ltmp20:
.Ltmp38:
	.loc	19 50 13 is_stmt 1      @ src/main/cpp/AVCDecoderConfiguration.cpp:50:13
	ldr	r1, .LCPI2_3
.LPC2_3:
	add	r1, pc
	ldr	r2, .LCPI2_4
.LPC2_4:
	add	r2, pc
	movs	r0, #6
	bl	__android_log_print
.Ltmp21:
	b	.LBB2_21
.LBB2_21:
	.loc	19 51 9                 @ src/main/cpp/AVCDecoderConfiguration.cpp:51:9
	b	.LBB2_22
.Ltmp39:
.LBB2_22:
	.loc	19 52 30                @ src/main/cpp/AVCDecoderConfiguration.cpp:52:30
	ldr	r0, [sp, #56]
	.loc	19 52 28 is_stmt 0      @ src/main/cpp/AVCDecoderConfiguration.cpp:52:28
	orr	r0, r0, #252
	.loc	19 52 9                 @ src/main/cpp/AVCDecoderConfiguration.cpp:52:9
	ldr	r1, [r7, #8]
	.loc	19 52 17                @ src/main/cpp/AVCDecoderConfiguration.cpp:52:17
	ldr	r2, [sp, #104]
	adds	r3, r2, #1
	str	r3, [sp, #104]
	.loc	19 52 21                @ src/main/cpp/AVCDecoderConfiguration.cpp:52:21
	strb	r0, [r1, r2]
	.loc	19 53 30 is_stmt 1      @ src/main/cpp/AVCDecoderConfiguration.cpp:53:30
	ldr	r0, [sp, #48]
	.loc	19 53 28 is_stmt 0      @ src/main/cpp/AVCDecoderConfiguration.cpp:53:28
	orr	r0, r0, #248
	.loc	19 53 9                 @ src/main/cpp/AVCDecoderConfiguration.cpp:53:9
	ldr	r1, [r7, #8]
	.loc	19 53 17                @ src/main/cpp/AVCDecoderConfiguration.cpp:53:17
	ldr	r2, [sp, #104]
	adds	r3, r2, #1
	str	r3, [sp, #104]
	.loc	19 53 21                @ src/main/cpp/AVCDecoderConfiguration.cpp:53:21
	strb	r0, [r1, r2]
	.loc	19 54 30 is_stmt 1      @ src/main/cpp/AVCDecoderConfiguration.cpp:54:30
	ldr	r0, [sp, #44]
	.loc	19 54 28 is_stmt 0      @ src/main/cpp/AVCDecoderConfiguration.cpp:54:28
	orr	r0, r0, #248
	.loc	19 54 9                 @ src/main/cpp/AVCDecoderConfiguration.cpp:54:9
	ldr	r1, [r7, #8]
	.loc	19 54 17                @ src/main/cpp/AVCDecoderConfiguration.cpp:54:17
	ldr	r2, [sp, #104]
	adds	r3, r2, #1
	str	r3, [sp, #104]
	.loc	19 54 21                @ src/main/cpp/AVCDecoderConfiguration.cpp:54:21
	strb	r0, [r1, r2]
	add	r0, sp, #92
.Ltmp40:
	.loc	19 55 5 is_stmt 1       @ src/main/cpp/AVCDecoderConfiguration.cpp:55:5
	bl	_ZN9BitStreamD1Ev
.Ltmp41:
	.loc	19 55 5 is_stmt 0       @ src/main/cpp/AVCDecoderConfiguration.cpp:55:5
	b	.LBB2_23
.Ltmp42:
.LBB2_23:
	.loc	19 56 15 is_stmt 1      @ src/main/cpp/AVCDecoderConfiguration.cpp:56:15
	ldr	r0, [sp, #104]
	.loc	19 56 6 is_stmt 0       @ src/main/cpp/AVCDecoderConfiguration.cpp:56:6
	ldr	r1, [r7, #12]
	.loc	19 56 13                @ src/main/cpp/AVCDecoderConfiguration.cpp:56:13
	str	r0, [r1]
	ldr	r0, .LCPI2_5
.LPC2_5:
	add	r0, pc
	ldr	r0, [r0]
	ldr	r0, [r0]
	ldr	r1, [sp, #108]
	cmp	r0, r1
	bne	.LBB2_26
	b	.LBB2_24
.LBB2_24:                               @ %SP_return
	.loc	19 0 13                 @ src/main/cpp/AVCDecoderConfiguration.cpp:0:13
	movs	r0, #0
	.loc	19 57 5 is_stmt 1       @ src/main/cpp/AVCDecoderConfiguration.cpp:57:5
	add	sp, #112
	pop	{r4, r6, r7, pc}
.LBB2_25:
.Ltmp43:
	.loc	19 55 5                 @ src/main/cpp/AVCDecoderConfiguration.cpp:55:5
	ldr	r0, [sp, #64]
	bl	_Unwind_Resume
.Ltmp44:
.LBB2_26:                               @ %CallStackCheckFailBlk
	.loc	19 0 0 is_stmt 0        @ src/main/cpp/AVCDecoderConfiguration.cpp:0:0
	bl	__stack_chk_fail
.Ltmp45:
	.p2align	2
@ %bb.27:
.LCPI2_0:
.Ltmp46:
	.long	__stack_chk_guard(GOT_PREL)-((.LPC2_0+4)-.Ltmp46)
.LCPI2_1:
	.long	.L.str-(.LPC2_1+4)
.LCPI2_2:
	.long	.L.str.1-(.LPC2_2+4)
.LCPI2_3:
	.long	.L.str-(.LPC2_3+4)
.LCPI2_4:
	.long	.L.str.2-(.LPC2_4+4)
.LCPI2_5:
.Ltmp47:
	.long	__stack_chk_guard(GOT_PREL)-((.LPC2_5+4)-.Ltmp47)
.Lfunc_end2:
	.size	_ZN23AVCDecoderConfiguration14ParseSPSAndPPSEiPhiS0_S0_Pi, .Lfunc_end2-_ZN23AVCDecoderConfiguration14ParseSPSAndPPSEiPhiS0_S0_Pi
	.cfi_endproc
	.globl	__gxx_personality_v0
	.personality __gxx_personality_v0
	.handlerdata
	.p2align	2
GCC_except_table2:
.Lexception0:
	.byte	255                     @ @LPStart Encoding = omit
	.byte	255                     @ @TType Encoding = omit
	.byte	1                       @ Call site Encoding = uleb128
	.uleb128 .Lcst_end0-.Lcst_begin0
.Lcst_begin0:
	.uleb128 .Lfunc_begin2-.Lfunc_begin2 @ >> Call Site 1 <<
	.uleb128 .Ltmp8-.Lfunc_begin2   @   Call between .Lfunc_begin2 and .Ltmp8
	.byte	0                       @     has no landing pad
	.byte	0                       @   On action: cleanup
	.uleb128 .Ltmp8-.Lfunc_begin2   @ >> Call Site 2 <<
	.uleb128 .Ltmp21-.Ltmp8         @   Call between .Ltmp8 and .Ltmp21
	.uleb128 .Ltmp22-.Lfunc_begin2  @     jumps to .Ltmp22
	.byte	0                       @   On action: cleanup
	.uleb128 .Ltmp21-.Lfunc_begin2  @ >> Call Site 3 <<
	.uleb128 .Lfunc_end2-.Ltmp21    @   Call between .Ltmp21 and .Lfunc_end2
	.byte	0                       @     has no landing pad
	.byte	0                       @   On action: cleanup
.Lcst_end0:
	.p2align	2
	.fnend
                                        @ -- End function
	.section	.text._ZN23AVCDecoderConfigurationD2Ev,"ax",%progbits
	.globl	_ZN23AVCDecoderConfigurationD2Ev @ -- Begin function _ZN23AVCDecoderConfigurationD2Ev
	.p2align	1
	.type	_ZN23AVCDecoderConfigurationD2Ev,%function
	.code	16                      @ @_ZN23AVCDecoderConfigurationD2Ev
	.thumb_func
_ZN23AVCDecoderConfigurationD2Ev:
.Lfunc_begin3:
	.loc	19 65 0 is_stmt 1       @ src/main/cpp/AVCDecoderConfiguration.cpp:65:0
	.fnstart
	.cfi_startproc
@ %bb.0:
	.pad	#4
	sub	sp, #4
	.cfi_def_cfa_offset 4
	str	r0, [sp]
	ldr	r0, [sp]
.Ltmp48:
	.loc	19 66 1 prologue_end    @ src/main/cpp/AVCDecoderConfiguration.cpp:66:1
	add	sp, #4
	bx	lr
.Ltmp49:
.Lfunc_end3:
	.size	_ZN23AVCDecoderConfigurationD2Ev, .Lfunc_end3-_ZN23AVCDecoderConfigurationD2Ev
	.cfi_endproc
	.fnend
                                        @ -- End function
	.section	.text._ZN23AVCDecoderConfigurationD0Ev,"ax",%progbits
	.globl	_ZN23AVCDecoderConfigurationD0Ev @ -- Begin function _ZN23AVCDecoderConfigurationD0Ev
	.p2align	1
	.type	_ZN23AVCDecoderConfigurationD0Ev,%function
	.code	16                      @ @_ZN23AVCDecoderConfigurationD0Ev
	.thumb_func
_ZN23AVCDecoderConfigurationD0Ev:
.Lfunc_begin4:
	.loc	19 65 0                 @ src/main/cpp/AVCDecoderConfiguration.cpp:65:0
	.fnstart
	.cfi_startproc
@ %bb.0:
	.save	{r7, lr}
	push	{r7, lr}
	.cfi_def_cfa_offset 8
	.cfi_offset lr, -4
	.cfi_offset r7, -8
	.setfp	r7, sp
	mov	r7, sp
	.cfi_def_cfa_register r7
	.pad	#16
	sub	sp, #16
	str	r0, [sp, #12]
	ldr	r0, [sp, #12]
.Ltmp50:
	.loc	19 65 53 prologue_end   @ src/main/cpp/AVCDecoderConfiguration.cpp:65:53
	str	r0, [sp, #8]            @ 4-byte Spill
	bl	_ZN23AVCDecoderConfigurationD1Ev
	ldr	r1, [sp, #8]            @ 4-byte Reload
	str	r0, [sp, #4]            @ 4-byte Spill
	mov	r0, r1
	bl	_ZdlPv
	.loc	19 66 1                 @ src/main/cpp/AVCDecoderConfiguration.cpp:66:1
	add	sp, #16
	pop	{r7, pc}
.Ltmp51:
.Lfunc_end4:
	.size	_ZN23AVCDecoderConfigurationD0Ev, .Lfunc_end4-_ZN23AVCDecoderConfigurationD0Ev
	.cfi_endproc
	.fnend
                                        @ -- End function
	.section	.text._ZN23AVCDecoderConfiguration7WriteToEPc,"ax",%progbits
	.globl	_ZN23AVCDecoderConfiguration7WriteToEPc @ -- Begin function _ZN23AVCDecoderConfiguration7WriteToEPc
	.p2align	1
	.type	_ZN23AVCDecoderConfiguration7WriteToEPc,%function
	.code	16                      @ @_ZN23AVCDecoderConfiguration7WriteToEPc
	.thumb_func
_ZN23AVCDecoderConfiguration7WriteToEPc:
.Lfunc_begin5:
	.loc	19 68 0                 @ src/main/cpp/AVCDecoderConfiguration.cpp:68:0
	.fnstart
	.cfi_startproc
@ %bb.0:
	.save	{r7, lr}
	push	{r7, lr}
	.cfi_def_cfa_offset 8
	.cfi_offset lr, -4
	.cfi_offset r7, -8
	.setfp	r7, sp
	mov	r7, sp
	.cfi_def_cfa_register r7
	.pad	#16
	sub	sp, #16
	str	r0, [sp, #12]
	str	r1, [sp, #8]
	ldr	r0, [sp, #12]
.Ltmp52:
	.loc	19 69 12 prologue_end   @ src/main/cpp/AVCDecoderConfiguration.cpp:69:12
	ldr	r1, [sp, #8]
	.loc	19 69 19 is_stmt 0      @ src/main/cpp/AVCDecoderConfiguration.cpp:69:19
	adds	r2, r0, #4
	.loc	19 69 27                @ src/main/cpp/AVCDecoderConfiguration.cpp:69:27
	ldr.w	r3, [r0, #1028]
	.loc	19 69 5                 @ src/main/cpp/AVCDecoderConfiguration.cpp:69:5
	str	r0, [sp, #4]            @ 4-byte Spill
	mov	r0, r1
	mov	r1, r2
	mov	r2, r3
	bl	__aeabi_memcpy
	.loc	19 70 12 is_stmt 1      @ src/main/cpp/AVCDecoderConfiguration.cpp:70:12
	ldr	r1, [sp, #8]
	.loc	19 70 21 is_stmt 0      @ src/main/cpp/AVCDecoderConfiguration.cpp:70:21
	ldr	r2, [sp, #4]            @ 4-byte Reload
	ldr.w	r3, [r2, #1028]
	.loc	19 70 19                @ src/main/cpp/AVCDecoderConfiguration.cpp:70:19
	add	r1, r3
	.loc	19 70 5                 @ src/main/cpp/AVCDecoderConfiguration.cpp:70:5
	str	r0, [sp]                @ 4-byte Spill
	mov	r0, r1
	add	sp, #16
	pop	{r7, pc}
.Ltmp53:
.Lfunc_end5:
	.size	_ZN23AVCDecoderConfiguration7WriteToEPc, .Lfunc_end5-_ZN23AVCDecoderConfiguration7WriteToEPc
	.cfi_endproc
	.fnend
                                        @ -- End function
	.section	.text._ZN23AVCDecoderConfiguration4SizeEv,"ax",%progbits
	.globl	_ZN23AVCDecoderConfiguration4SizeEv @ -- Begin function _ZN23AVCDecoderConfiguration4SizeEv
	.p2align	1
	.type	_ZN23AVCDecoderConfiguration4SizeEv,%function
	.code	16                      @ @_ZN23AVCDecoderConfiguration4SizeEv
	.thumb_func
_ZN23AVCDecoderConfiguration4SizeEv:
.Lfunc_begin6:
	.loc	19 73 0 is_stmt 1       @ src/main/cpp/AVCDecoderConfiguration.cpp:73:0
	.fnstart
	.cfi_startproc
@ %bb.0:
	.pad	#4
	sub	sp, #4
	.cfi_def_cfa_offset 4
	str	r0, [sp]
	ldr	r0, [sp]
.Ltmp54:
	.loc	19 74 18 prologue_end   @ src/main/cpp/AVCDecoderConfiguration.cpp:74:18
	ldr.w	r0, [r0, #1028]
	.loc	19 74 5 is_stmt 0       @ src/main/cpp/AVCDecoderConfiguration.cpp:74:5
	add	sp, #4
	bx	lr
.Ltmp55:
.Lfunc_end6:
	.size	_ZN23AVCDecoderConfiguration4SizeEv, .Lfunc_end6-_ZN23AVCDecoderConfiguration4SizeEv
	.cfi_endproc
	.fnend
                                        @ -- End function
	.section	.text._ZN7IBufferC2Ev,"axG",%progbits,_ZN7IBufferC2Ev,comdat
	.weak	_ZN7IBufferC2Ev         @ -- Begin function _ZN7IBufferC2Ev
	.p2align	2
	.type	_ZN7IBufferC2Ev,%function
	.code	16                      @ @_ZN7IBufferC2Ev
	.thumb_func
_ZN7IBufferC2Ev:
.Lfunc_begin7:
	.loc	20 9 0 is_stmt 1        @ src/main/cpp/IBuffer.h:9:0
	.fnstart
	.cfi_startproc
@ %bb.0:
	.pad	#4
	sub	sp, #4
	.cfi_def_cfa_offset 4
	str	r0, [sp]
	ldr	r0, [sp]
.Ltmp56:
	.loc	20 9 7 prologue_end     @ src/main/cpp/IBuffer.h:9:7
	ldr	r1, .LCPI7_0
.LPC7_0:
	add	r1, pc
	ldr	r1, [r1]
	adds	r1, #8
	str	r1, [r0]
	add	sp, #4
	bx	lr
.Ltmp57:
	.p2align	2
@ %bb.1:
	.loc	20 0 7 is_stmt 0        @ src/main/cpp/IBuffer.h:0:7
.LCPI7_0:
.Ltmp58:
	.long	_ZTV7IBuffer(GOT_PREL)-((.LPC7_0+4)-.Ltmp58)
.Lfunc_end7:
	.size	_ZN7IBufferC2Ev, .Lfunc_end7-_ZN7IBufferC2Ev
	.cfi_endproc
	.fnend
                                        @ -- End function
	.section	.text._ZN6Golomb5GetUeER9BitStream,"axG",%progbits,_ZN6Golomb5GetUeER9BitStream,comdat
	.weak	_ZN6Golomb5GetUeER9BitStream @ -- Begin function _ZN6Golomb5GetUeER9BitStream
	.p2align	1
	.type	_ZN6Golomb5GetUeER9BitStream,%function
	.code	16                      @ @_ZN6Golomb5GetUeER9BitStream
	.thumb_func
_ZN6Golomb5GetUeER9BitStream:
.Lfunc_begin8:
	.file	24 "/Users/bytedance/code/my/LiveStream/AndroidPublisher/rtmplive" "src/main/cpp/Golomb.h"
	.loc	24 13 0 is_stmt 1       @ src/main/cpp/Golomb.h:13:0
	.fnstart
	.cfi_startproc
@ %bb.0:
	.save	{r7, lr}
	push	{r7, lr}
	.cfi_def_cfa_offset 8
	.cfi_offset lr, -4
	.cfi_offset r7, -8
	.setfp	r7, sp
	mov	r7, sp
	.cfi_def_cfa_register r7
	.pad	#16
	sub	sp, #16
	str	r0, [sp, #12]
	mov.w	r0, #-1
.Ltmp59:
	.loc	24 14 13 prologue_end   @ src/main/cpp/Golomb.h:14:13
	str	r0, [sp, #8]
	movs	r0, #0
.Ltmp60:
	.loc	24 15 18                @ src/main/cpp/Golomb.h:15:18
	str	r0, [sp, #4]
	.loc	24 15 14 is_stmt 0      @ src/main/cpp/Golomb.h:15:14
	b	.LBB8_1
.LBB8_1:                                @ =>This Inner Loop Header: Depth=1
.Ltmp61:
	.loc	24 15 26                @ src/main/cpp/Golomb.h:15:26
	ldr	r0, [sp, #4]
.Ltmp62:
	.loc	24 15 9                 @ src/main/cpp/Golomb.h:15:9
	cmp	r0, #0
	bne	.LBB8_4
	b	.LBB8_2
.LBB8_2:                                @   in Loop: Header=BB8_1 Depth=1
.Ltmp63:
	.loc	24 17 17 is_stmt 1      @ src/main/cpp/Golomb.h:17:17
	ldr	r0, [sp, #12]
	movs	r1, #1
	.loc	24 17 28 is_stmt 0      @ src/main/cpp/Golomb.h:17:28
	bl	_ZN9BitStream8ReadBitsEi
	.loc	24 17 15                @ src/main/cpp/Golomb.h:17:15
	str	r0, [sp, #4]
	.loc	24 18 9 is_stmt 1       @ src/main/cpp/Golomb.h:18:9
	b	.LBB8_3
.Ltmp64:
.LBB8_3:                                @   in Loop: Header=BB8_1 Depth=1
	.loc	24 15 46                @ src/main/cpp/Golomb.h:15:46
	ldr	r0, [sp, #8]
	adds	r0, #1
	str	r0, [sp, #8]
	.loc	24 15 9 is_stmt 0       @ src/main/cpp/Golomb.h:15:9
	b	.LBB8_1
.Ltmp65:
.LBB8_4:
	.loc	24 19 17 is_stmt 1      @ src/main/cpp/Golomb.h:19:17
	ldr	r0, [sp, #12]
	.loc	24 19 37 is_stmt 0      @ src/main/cpp/Golomb.h:19:37
	ldr	r1, [sp, #8]
	.loc	24 19 28                @ src/main/cpp/Golomb.h:19:28
	bl	_ZN9BitStream8ReadBitsEi
	.loc	24 19 13                @ src/main/cpp/Golomb.h:19:13
	str	r0, [sp]
	.loc	24 20 25 is_stmt 1      @ src/main/cpp/Golomb.h:20:25
	ldr	r0, [sp, #8]
	.loc	24 20 43 is_stmt 0      @ src/main/cpp/Golomb.h:20:43
	adds	r0, #1
	movs	r1, #1
	.loc	24 20 21                @ src/main/cpp/Golomb.h:20:21
	lsl.w	r0, r1, r0
	.loc	24 20 55                @ src/main/cpp/Golomb.h:20:55
	ldr	r1, [sp]
	.loc	24 20 53                @ src/main/cpp/Golomb.h:20:53
	add	r0, r1
	subs	r0, #1
	.loc	24 20 9                 @ src/main/cpp/Golomb.h:20:9
	add	sp, #16
	pop	{r7, pc}
.Ltmp66:
.Lfunc_end8:
	.size	_ZN6Golomb5GetUeER9BitStream, .Lfunc_end8-_ZN6Golomb5GetUeER9BitStream
	.cfi_endproc
	.file	25 "/Users/bytedance/code/my/LiveStream/AndroidPublisher/rtmplive" "src/main/cpp/BitStream.h"
	.fnend
                                        @ -- End function
	.type	_ZTV23AVCDecoderConfiguration,%object @ @_ZTV23AVCDecoderConfiguration
	.section	.data.rel.ro._ZTV23AVCDecoderConfiguration,"aw",%progbits
	.globl	_ZTV23AVCDecoderConfiguration
	.p2align	2
_ZTV23AVCDecoderConfiguration:
	.long	0
	.long	_ZTI23AVCDecoderConfiguration
	.long	_ZN23AVCDecoderConfiguration7WriteToEPc
	.long	_ZN23AVCDecoderConfiguration4SizeEv
	.long	_ZN23AVCDecoderConfigurationD1Ev
	.long	_ZN23AVCDecoderConfigurationD0Ev
	.size	_ZTV23AVCDecoderConfiguration, 24

	.type	_ZTS23AVCDecoderConfiguration,%object @ @_ZTS23AVCDecoderConfiguration
	.section	.rodata._ZTS23AVCDecoderConfiguration,"a",%progbits
	.globl	_ZTS23AVCDecoderConfiguration
_ZTS23AVCDecoderConfiguration:
	.asciz	"23AVCDecoderConfiguration"
	.size	_ZTS23AVCDecoderConfiguration, 26

	.type	_ZTS14IAVCPacketData,%object @ @_ZTS14IAVCPacketData
	.section	.rodata._ZTS14IAVCPacketData,"aG",%progbits,_ZTS14IAVCPacketData,comdat
	.weak	_ZTS14IAVCPacketData
_ZTS14IAVCPacketData:
	.asciz	"14IAVCPacketData"
	.size	_ZTS14IAVCPacketData, 17

	.type	_ZTS7IBuffer,%object    @ @_ZTS7IBuffer
	.section	.rodata._ZTS7IBuffer,"aG",%progbits,_ZTS7IBuffer,comdat
	.weak	_ZTS7IBuffer
_ZTS7IBuffer:
	.asciz	"7IBuffer"
	.size	_ZTS7IBuffer, 9

	.type	_ZTI7IBuffer,%object    @ @_ZTI7IBuffer
	.section	.data.rel.ro._ZTI7IBuffer,"aGw",%progbits,_ZTI7IBuffer,comdat
	.weak	_ZTI7IBuffer
	.p2align	2
_ZTI7IBuffer:
	.long	_ZTVN10__cxxabiv117__class_type_infoE+8
	.long	_ZTS7IBuffer
	.size	_ZTI7IBuffer, 8

	.type	_ZTI14IAVCPacketData,%object @ @_ZTI14IAVCPacketData
	.section	.data.rel.ro._ZTI14IAVCPacketData,"aGw",%progbits,_ZTI14IAVCPacketData,comdat
	.weak	_ZTI14IAVCPacketData
	.p2align	2
_ZTI14IAVCPacketData:
	.long	_ZTVN10__cxxabiv120__si_class_type_infoE+8
	.long	_ZTS14IAVCPacketData
	.long	_ZTI7IBuffer
	.size	_ZTI14IAVCPacketData, 12

	.type	_ZTI23AVCDecoderConfiguration,%object @ @_ZTI23AVCDecoderConfiguration
	.section	.data.rel.ro._ZTI23AVCDecoderConfiguration,"aw",%progbits
	.globl	_ZTI23AVCDecoderConfiguration
	.p2align	2
_ZTI23AVCDecoderConfiguration:
	.long	_ZTVN10__cxxabiv120__si_class_type_infoE+8
	.long	_ZTS23AVCDecoderConfiguration
	.long	_ZTI14IAVCPacketData
	.size	_ZTI23AVCDecoderConfiguration, 12

	.type	_ZTV14IAVCPacketData,%object @ @_ZTV14IAVCPacketData
	.section	.data.rel.ro._ZTV14IAVCPacketData,"aGw",%progbits,_ZTV14IAVCPacketData,comdat
	.weak	_ZTV14IAVCPacketData
	.p2align	2
_ZTV14IAVCPacketData:
	.long	0
	.long	_ZTI14IAVCPacketData
	.long	__cxa_pure_virtual
	.long	__cxa_pure_virtual
	.size	_ZTV14IAVCPacketData, 16

	.type	_ZTV7IBuffer,%object    @ @_ZTV7IBuffer
	.section	.data.rel.ro._ZTV7IBuffer,"aGw",%progbits,_ZTV7IBuffer,comdat
	.weak	_ZTV7IBuffer
	.p2align	2
_ZTV7IBuffer:
	.long	0
	.long	_ZTI7IBuffer
	.long	__cxa_pure_virtual
	.long	__cxa_pure_virtual
	.size	_ZTV7IBuffer, 16

	.type	.L.str,%object          @ @.str
	.section	.rodata.str1.1,"aMS",%progbits,1
.L.str:
	.asciz	"PUBLISH-C"
	.size	.L.str, 10

	.type	.L.str.1,%object        @ @.str.1
.L.str.1:
	.asciz	"parse chroma idc error."
	.size	.L.str.1, 24

	.type	.L.str.2,%object        @ @.str.2
.L.str.2:
	.asciz	"illegal bit depth value"
	.size	.L.str.2, 24

	.file	26 "<stdin>"
	.section	".note.GNU-stack","",%progbits