	.text
	.syntax unified
	.eabi_attribute	67, "2.09"	@ Tag_conformance
	.eabi_attribute	6, 10	@ Tag_CPU_arch
	.eabi_attribute	7, 65	@ Tag_CPU_arch_profile
	.eabi_attribute	8, 1	@ Tag_ARM_ISA_use
	.eabi_attribute	9, 2	@ Tag_THUMB_ISA_use
	.fpu	neon
	.eabi_attribute	34, 1	@ Tag_CPU_unaligned_access
	.eabi_attribute	15, 1	@ Tag_ABI_PCS_RW_data
	.eabi_attribute	16, 1	@ Tag_ABI_PCS_RO_data
	.eabi_attribute	17, 2	@ Tag_ABI_PCS_GOT_use
	.eabi_attribute	20, 1	@ Tag_ABI_FP_denormal
	.eabi_attribute	21, 1	@ Tag_ABI_FP_exceptions
	.eabi_attribute	23, 3	@ Tag_ABI_FP_number_model
	.eabi_attribute	24, 1	@ Tag_ABI_align_needed
	.eabi_attribute	25, 1	@ Tag_ABI_align_preserved
	.eabi_attribute	38, 1	@ Tag_ABI_FP_16bit_format
	.eabi_attribute	18, 4	@ Tag_ABI_PCS_wchar_t
	.eabi_attribute	26, 2	@ Tag_ABI_enum_size
	.eabi_attribute	14, 0	@ Tag_ABI_PCS_R9_use
	.file	"AVCVideoPacket.cpp"
	.file	1 "/Users/bytedance/code/my/LiveStream/AndroidPublisher/rtmplive" "src/main/cpp/IBuffer.h"
	.file	2 "/Users/bytedance/code/my/LiveStream/AndroidPublisher/rtmplive" "src/main/cpp/IVideoPacket.h"
	.file	3 "/Users/bytedance/code/my/LiveStream/AndroidPublisher/rtmplive" "src/main/cpp/AVCVideoPacket.h"
	.file	4 "/Users/bytedance" "Library/Android/sdk/ndk/21.4.7075529/toolchains/llvm/prebuilt/darwin-x86_64/sysroot/usr/include/stdint.h"
	.file	5 "/Users/bytedance/code/my/LiveStream/AndroidPublisher/rtmplive" "src/main/cpp/IAVCPacketData.h"
	.file	6 "/Users/bytedance" "Library/Android/sdk/ndk/21.4.7075529/toolchains/llvm/prebuilt/darwin-x86_64/sysroot/usr/include/c++/v1/__nullptr"
	.file	7 "/Users/bytedance" "Library/Android/sdk/ndk/21.4.7075529/toolchains/llvm/prebuilt/darwin-x86_64/sysroot/usr/include/c++/v1/stddef.h"
	.file	8 "/Users/bytedance" "Library/Android/sdk/ndk/21.4.7075529/toolchains/llvm/prebuilt/darwin-x86_64/lib64/clang/9.0.9/include/stddef.h"
	.file	9 "/Users/bytedance" "Library/Android/sdk/ndk/21.4.7075529/toolchains/llvm/prebuilt/darwin-x86_64/sysroot/usr/include/c++/v1/cstddef"
	.file	10 "/Users/bytedance" "Library/Android/sdk/ndk/21.4.7075529/toolchains/llvm/prebuilt/darwin-x86_64/lib64/clang/9.0.9/include/__stddef_max_align_t.h"
	.file	11 "/Users/bytedance" "Library/Android/sdk/ndk/21.4.7075529/toolchains/llvm/prebuilt/darwin-x86_64/sysroot/usr/include/c++/v1/cstdlib"
	.file	12 "/Users/bytedance" "Library/Android/sdk/ndk/21.4.7075529/toolchains/llvm/prebuilt/darwin-x86_64/sysroot/usr/include/stdlib.h"
	.file	13 "/Users/bytedance" "Library/Android/sdk/ndk/21.4.7075529/toolchains/llvm/prebuilt/darwin-x86_64/sysroot/usr/include/android/legacy_stdlib_inlines.h"
	.file	14 "/Users/bytedance" "Library/Android/sdk/ndk/21.4.7075529/toolchains/llvm/prebuilt/darwin-x86_64/sysroot/usr/include/malloc.h"
	.file	15 "/Users/bytedance" "Library/Android/sdk/ndk/21.4.7075529/toolchains/llvm/prebuilt/darwin-x86_64/sysroot/usr/include/c++/v1/math.h"
	.file	16 "/Users/bytedance" "Library/Android/sdk/ndk/21.4.7075529/toolchains/llvm/prebuilt/darwin-x86_64/sysroot/usr/local/include/stdlib.h"
	.file	17 "/Users/bytedance" "Library/Android/sdk/ndk/21.4.7075529/toolchains/llvm/prebuilt/darwin-x86_64/sysroot/usr/include/c++/v1/cstdint"
	.file	18 "/Users/bytedance" "Library/Android/sdk/ndk/21.4.7075529/toolchains/llvm/prebuilt/darwin-x86_64/sysroot/usr/include/c++/v1/cstring"
	.file	19 "/Users/bytedance" "Library/Android/sdk/ndk/21.4.7075529/toolchains/llvm/prebuilt/darwin-x86_64/sysroot/usr/include/string.h"
	.file	20 "/Users/bytedance" "Library/Android/sdk/ndk/21.4.7075529/toolchains/llvm/prebuilt/darwin-x86_64/sysroot/usr/include/bits/fortify/string.h"
	.file	21 "/Users/bytedance" "Library/Android/sdk/ndk/21.4.7075529/toolchains/llvm/prebuilt/darwin-x86_64/sysroot/usr/include/c++/v1/string.h"
	.section	.text._ZN14AVCVideoPacketC2ENS_13AVCPacketTypeEjP14IAVCPacketData,"ax",%progbits
	.globl	_ZN14AVCVideoPacketC2ENS_13AVCPacketTypeEjP14IAVCPacketData @ -- Begin function _ZN14AVCVideoPacketC2ENS_13AVCPacketTypeEjP14IAVCPacketData
	.p2align	2
	.type	_ZN14AVCVideoPacketC2ENS_13AVCPacketTypeEjP14IAVCPacketData,%function
	.code	16                      @ @_ZN14AVCVideoPacketC2ENS_13AVCPacketTypeEjP14IAVCPacketData
	.thumb_func
_ZN14AVCVideoPacketC2ENS_13AVCPacketTypeEjP14IAVCPacketData:
.Lfunc_begin0:
	.file	22 "/Users/bytedance/code/my/LiveStream/AndroidPublisher/rtmplive" "src/main/cpp/AVCVideoPacket.cpp"
	.loc	22 10 0                 @ src/main/cpp/AVCVideoPacket.cpp:10:0
	.fnstart
	.cfi_sections .debug_frame
	.cfi_startproc
@ %bb.0:
	.save	{r7, lr}
	push	{r7, lr}
	.cfi_def_cfa_offset 8
	.cfi_offset lr, -4
	.cfi_offset r7, -8
	.setfp	r7, sp
	mov	r7, sp
	.cfi_def_cfa_register r7
	.pad	#24
	sub	sp, #24
	str	r0, [sp, #20]
	str	r1, [sp, #16]
	str	r2, [sp, #12]
	str	r3, [sp, #8]
	ldr	r0, [sp, #20]
.Ltmp0:
	.loc	22 8 17 prologue_end    @ src/main/cpp/AVCVideoPacket.cpp:8:17
	str	r0, [sp, #4]            @ 4-byte Spill
	bl	_ZN12IVideoPacketC2Ev
	.loc	22 10 65                @ src/main/cpp/AVCVideoPacket.cpp:10:65
	ldr	r0, .LCPI0_0
.LPC0_0:
	add	r0, pc
	ldr	r0, [r0]
	adds	r0, #8
	ldr	r1, [sp, #4]            @ 4-byte Reload
	str	r0, [r1]
	.loc	22 10 28 is_stmt 0      @ src/main/cpp/AVCVideoPacket.cpp:10:28
	ldr	r0, [sp, #16]
	.loc	22 10 11                @ src/main/cpp/AVCVideoPacket.cpp:10:11
	str	r0, [r1, #4]
	.loc	22 10 47                @ src/main/cpp/AVCVideoPacket.cpp:10:47
	ldr	r0, [sp, #12]
	.loc	22 10 42                @ src/main/cpp/AVCVideoPacket.cpp:10:42
	str	r0, [r1, #8]
	.loc	22 10 59                @ src/main/cpp/AVCVideoPacket.cpp:10:59
	ldr	r0, [sp, #8]
	.loc	22 10 53                @ src/main/cpp/AVCVideoPacket.cpp:10:53
	str	r0, [r1, #12]
	.loc	22 11 1 is_stmt 1       @ src/main/cpp/AVCVideoPacket.cpp:11:1
	mov	r0, r1
	add	sp, #24
	pop	{r7, pc}
.Ltmp1:
	.p2align	2
@ %bb.1:
	.loc	22 0 1 is_stmt 0        @ src/main/cpp/AVCVideoPacket.cpp:0:1
.LCPI0_0:
.Ltmp2:
	.long	_ZTV14AVCVideoPacket(GOT_PREL)-((.LPC0_0+4)-.Ltmp2)
.Lfunc_end0:
	.size	_ZN14AVCVideoPacketC2ENS_13AVCPacketTypeEjP14IAVCPacketData, .Lfunc_end0-_ZN14AVCVideoPacketC2ENS_13AVCPacketTypeEjP14IAVCPacketData
	.cfi_endproc
	.fnend
                                        @ -- End function
	.section	.text._ZN12IVideoPacketC2Ev,"axG",%progbits,_ZN12IVideoPacketC2Ev,comdat
	.weak	_ZN12IVideoPacketC2Ev   @ -- Begin function _ZN12IVideoPacketC2Ev
	.p2align	2
	.type	_ZN12IVideoPacketC2Ev,%function
	.code	16                      @ @_ZN12IVideoPacketC2Ev
	.thumb_func
_ZN12IVideoPacketC2Ev:
.Lfunc_begin1:
	.loc	2 9 0 is_stmt 1         @ src/main/cpp/IVideoPacket.h:9:0
	.fnstart
	.cfi_startproc
@ %bb.0:
	.save	{r7, lr}
	push	{r7, lr}
	.cfi_def_cfa_offset 8
	.cfi_offset lr, -4
	.cfi_offset r7, -8
	.setfp	r7, sp
	mov	r7, sp
	.cfi_def_cfa_register r7
	.pad	#8
	sub	sp, #8
	str	r0, [sp, #4]
	ldr	r0, [sp, #4]
.Ltmp3:
	.loc	2 9 7 prologue_end      @ src/main/cpp/IVideoPacket.h:9:7
	str	r0, [sp]                @ 4-byte Spill
	bl	_ZN7IBufferC2Ev
	ldr	r0, .LCPI1_0
.LPC1_0:
	add	r0, pc
	ldr	r0, [r0]
	adds	r0, #8
	ldr	r1, [sp]                @ 4-byte Reload
	str	r0, [r1]
	mov	r0, r1
	add	sp, #8
	pop	{r7, pc}
.Ltmp4:
	.p2align	2
@ %bb.1:
	.loc	2 0 7 is_stmt 0         @ src/main/cpp/IVideoPacket.h:0:7
.LCPI1_0:
.Ltmp5:
	.long	_ZTV12IVideoPacket(GOT_PREL)-((.LPC1_0+4)-.Ltmp5)
.Lfunc_end1:
	.size	_ZN12IVideoPacketC2Ev, .Lfunc_end1-_ZN12IVideoPacketC2Ev
	.cfi_endproc
	.fnend
                                        @ -- End function
	.section	.text._ZN14AVCVideoPacketD2Ev,"ax",%progbits
	.globl	_ZN14AVCVideoPacketD2Ev @ -- Begin function _ZN14AVCVideoPacketD2Ev
	.p2align	1
	.type	_ZN14AVCVideoPacketD2Ev,%function
	.code	16                      @ @_ZN14AVCVideoPacketD2Ev
	.thumb_func
_ZN14AVCVideoPacketD2Ev:
.Lfunc_begin2:
	.loc	22 13 0 is_stmt 1       @ src/main/cpp/AVCVideoPacket.cpp:13:0
	.fnstart
	.cfi_startproc
@ %bb.0:
	.pad	#4
	sub	sp, #4
	.cfi_def_cfa_offset 4
	str	r0, [sp]
	ldr	r0, [sp]
.Ltmp6:
	.loc	22 15 1 prologue_end    @ src/main/cpp/AVCVideoPacket.cpp:15:1
	add	sp, #4
	bx	lr
.Ltmp7:
.Lfunc_end2:
	.size	_ZN14AVCVideoPacketD2Ev, .Lfunc_end2-_ZN14AVCVideoPacketD2Ev
	.cfi_endproc
	.fnend
                                        @ -- End function
	.section	.text._ZN14AVCVideoPacket7WriteToEPc,"ax",%progbits
	.globl	_ZN14AVCVideoPacket7WriteToEPc @ -- Begin function _ZN14AVCVideoPacket7WriteToEPc
	.p2align	1
	.type	_ZN14AVCVideoPacket7WriteToEPc,%function
	.code	16                      @ @_ZN14AVCVideoPacket7WriteToEPc
	.thumb_func
_ZN14AVCVideoPacket7WriteToEPc:
.Lfunc_begin3:
	.loc	22 17 0                 @ src/main/cpp/AVCVideoPacket.cpp:17:0
	.fnstart
	.cfi_startproc
@ %bb.0:
	.save	{r7, lr}
	push	{r7, lr}
	.cfi_def_cfa_offset 8
	.cfi_offset lr, -4
	.cfi_offset r7, -8
	.setfp	r7, sp
	mov	r7, sp
	.cfi_def_cfa_register r7
	.pad	#16
	sub	sp, #16
	str	r0, [sp, #12]
	str	r1, [sp, #8]
	ldr	r0, [sp, #12]
.Ltmp8:
	.loc	22 18 17 prologue_end   @ src/main/cpp/AVCVideoPacket.cpp:18:17
	ldr	r1, [r0, #4]
	.loc	22 18 5 is_stmt 0       @ src/main/cpp/AVCVideoPacket.cpp:18:5
	ldr	r2, [sp, #8]
	.loc	22 18 15                @ src/main/cpp/AVCVideoPacket.cpp:18:15
	strb	r1, [r2]
.Ltmp9:
	.loc	22 19 9 is_stmt 1       @ src/main/cpp/AVCVideoPacket.cpp:19:9
	ldr	r1, [r0, #4]
.Ltmp10:
	.loc	22 19 9 is_stmt 0       @ src/main/cpp/AVCVideoPacket.cpp:19:9
	cmp	r1, #1
	str	r0, [sp, #4]            @ 4-byte Spill
	bne	.LBB3_2
	b	.LBB3_1
.LBB3_1:
.Ltmp11:
	.loc	22 20 21 is_stmt 1      @ src/main/cpp/AVCVideoPacket.cpp:20:21
	ldr	r0, [sp, #4]            @ 4-byte Reload
	ldrh	r1, [r0, #10]
	.loc	22 20 9 is_stmt 0       @ src/main/cpp/AVCVideoPacket.cpp:20:9
	ldr	r2, [sp, #8]
	.loc	22 20 19                @ src/main/cpp/AVCVideoPacket.cpp:20:19
	strb	r1, [r2, #1]
	.loc	22 21 21 is_stmt 1      @ src/main/cpp/AVCVideoPacket.cpp:21:21
	ldr	r1, [r0, #8]
	.loc	22 21 26 is_stmt 0      @ src/main/cpp/AVCVideoPacket.cpp:21:26
	lsrs	r1, r1, #8
	.loc	22 21 9                 @ src/main/cpp/AVCVideoPacket.cpp:21:9
	ldr	r2, [sp, #8]
	.loc	22 21 19                @ src/main/cpp/AVCVideoPacket.cpp:21:19
	strb	r1, [r2, #2]
	.loc	22 22 21 is_stmt 1      @ src/main/cpp/AVCVideoPacket.cpp:22:21
	ldr	r1, [r0, #8]
	.loc	22 22 9 is_stmt 0       @ src/main/cpp/AVCVideoPacket.cpp:22:9
	ldr	r2, [sp, #8]
	.loc	22 22 19                @ src/main/cpp/AVCVideoPacket.cpp:22:19
	strb	r1, [r2, #3]
	.loc	22 23 5 is_stmt 1       @ src/main/cpp/AVCVideoPacket.cpp:23:5
	b	.LBB3_3
.Ltmp12:
.LBB3_2:
	.loc	22 24 9                 @ src/main/cpp/AVCVideoPacket.cpp:24:9
	ldr	r0, [sp, #8]
	movs	r1, #0
	.loc	22 24 19 is_stmt 0      @ src/main/cpp/AVCVideoPacket.cpp:24:19
	strb	r1, [r0, #1]
	.loc	22 25 9 is_stmt 1       @ src/main/cpp/AVCVideoPacket.cpp:25:9
	ldr	r0, [sp, #8]
	.loc	22 25 19 is_stmt 0      @ src/main/cpp/AVCVideoPacket.cpp:25:19
	strb	r1, [r0, #2]
	.loc	22 26 9 is_stmt 1       @ src/main/cpp/AVCVideoPacket.cpp:26:9
	ldr	r0, [sp, #8]
	.loc	22 26 19 is_stmt 0      @ src/main/cpp/AVCVideoPacket.cpp:26:19
	strb	r1, [r0, #3]
	b	.LBB3_3
.Ltmp13:
.LBB3_3:
	.loc	22 28 12 is_stmt 1      @ src/main/cpp/AVCVideoPacket.cpp:28:12
	ldr	r0, [sp, #4]            @ 4-byte Reload
	ldr	r1, [r0, #12]
	.loc	22 28 28 is_stmt 0      @ src/main/cpp/AVCVideoPacket.cpp:28:28
	ldr	r2, [sp, #8]
	adds	r2, #4
	.loc	22 28 19                @ src/main/cpp/AVCVideoPacket.cpp:28:19
	ldr	r3, [r1]
	ldr	r3, [r3]
	mov	r0, r1
	mov	r1, r2
	blx	r3
	.loc	22 28 5                 @ src/main/cpp/AVCVideoPacket.cpp:28:5
	add	sp, #16
	pop	{r7, pc}
.Ltmp14:
.Lfunc_end3:
	.size	_ZN14AVCVideoPacket7WriteToEPc, .Lfunc_end3-_ZN14AVCVideoPacket7WriteToEPc
	.cfi_endproc
	.fnend
                                        @ -- End function
	.section	.text._ZN14AVCVideoPacket4SizeEv,"ax",%progbits
	.globl	_ZN14AVCVideoPacket4SizeEv @ -- Begin function _ZN14AVCVideoPacket4SizeEv
	.p2align	1
	.type	_ZN14AVCVideoPacket4SizeEv,%function
	.code	16                      @ @_ZN14AVCVideoPacket4SizeEv
	.thumb_func
_ZN14AVCVideoPacket4SizeEv:
.Lfunc_begin4:
	.loc	22 31 0 is_stmt 1       @ src/main/cpp/AVCVideoPacket.cpp:31:0
	.fnstart
	.cfi_startproc
@ %bb.0:
	.save	{r7, lr}
	push	{r7, lr}
	.cfi_def_cfa_offset 8
	.cfi_offset lr, -4
	.cfi_offset r7, -8
	.setfp	r7, sp
	mov	r7, sp
	.cfi_def_cfa_register r7
	.pad	#8
	sub	sp, #8
	str	r0, [sp, #4]
	ldr	r0, [sp, #4]
.Ltmp15:
	.loc	22 32 16 prologue_end   @ src/main/cpp/AVCVideoPacket.cpp:32:16
	ldr	r0, [r0, #12]
	.loc	22 32 23 is_stmt 0      @ src/main/cpp/AVCVideoPacket.cpp:32:23
	ldr	r1, [r0]
	ldr	r1, [r1, #4]
	blx	r1
	.loc	22 32 14                @ src/main/cpp/AVCVideoPacket.cpp:32:14
	adds	r0, #4
	.loc	22 32 5                 @ src/main/cpp/AVCVideoPacket.cpp:32:5
	add	sp, #8
	pop	{r7, pc}
.Ltmp16:
.Lfunc_end4:
	.size	_ZN14AVCVideoPacket4SizeEv, .Lfunc_end4-_ZN14AVCVideoPacket4SizeEv
	.cfi_endproc
	.fnend
                                        @ -- End function
	.section	.text._ZN7IBufferC2Ev,"axG",%progbits,_ZN7IBufferC2Ev,comdat
	.weak	_ZN7IBufferC2Ev         @ -- Begin function _ZN7IBufferC2Ev
	.p2align	2
	.type	_ZN7IBufferC2Ev,%function
	.code	16                      @ @_ZN7IBufferC2Ev
	.thumb_func
_ZN7IBufferC2Ev:
.Lfunc_begin5:
	.loc	1 9 0 is_stmt 1         @ src/main/cpp/IBuffer.h:9:0
	.fnstart
	.cfi_startproc
@ %bb.0:
	.pad	#4
	sub	sp, #4
	.cfi_def_cfa_offset 4
	str	r0, [sp]
	ldr	r0, [sp]
.Ltmp17:
	.loc	1 9 7 prologue_end      @ src/main/cpp/IBuffer.h:9:7
	ldr	r1, .LCPI5_0
.LPC5_0:
	add	r1, pc
	ldr	r1, [r1]
	adds	r1, #8
	str	r1, [r0]
	add	sp, #4
	bx	lr
.Ltmp18:
	.p2align	2
@ %bb.1:
	.loc	1 0 7 is_stmt 0         @ src/main/cpp/IBuffer.h:0:7
.LCPI5_0:
.Ltmp19:
	.long	_ZTV7IBuffer(GOT_PREL)-((.LPC5_0+4)-.Ltmp19)
.Lfunc_end5:
	.size	_ZN7IBufferC2Ev, .Lfunc_end5-_ZN7IBufferC2Ev
	.cfi_endproc
	.fnend
                                        @ -- End function
	.type	_ZTV14AVCVideoPacket,%object @ @_ZTV14AVCVideoPacket
	.section	.data.rel.ro._ZTV14AVCVideoPacket,"aw",%progbits
	.globl	_ZTV14AVCVideoPacket
	.p2align	2
_ZTV14AVCVideoPacket:
	.long	0
	.long	_ZTI14AVCVideoPacket
	.long	_ZN14AVCVideoPacket7WriteToEPc
	.long	_ZN14AVCVideoPacket4SizeEv
	.size	_ZTV14AVCVideoPacket, 16

	.type	_ZTS14AVCVideoPacket,%object @ @_ZTS14AVCVideoPacket
	.section	.rodata._ZTS14AVCVideoPacket,"a",%progbits
	.globl	_ZTS14AVCVideoPacket
_ZTS14AVCVideoPacket:
	.asciz	"14AVCVideoPacket"
	.size	_ZTS14AVCVideoPacket, 17

	.type	_ZTS12IVideoPacket,%object @ @_ZTS12IVideoPacket
	.section	.rodata._ZTS12IVideoPacket,"aG",%progbits,_ZTS12IVideoPacket,comdat
	.weak	_ZTS12IVideoPacket
_ZTS12IVideoPacket:
	.asciz	"12IVideoPacket"
	.size	_ZTS12IVideoPacket, 15

	.type	_ZTS7IBuffer,%object    @ @_ZTS7IBuffer
	.section	.rodata._ZTS7IBuffer,"aG",%progbits,_ZTS7IBuffer,comdat
	.weak	_ZTS7IBuffer
_ZTS7IBuffer:
	.asciz	"7IBuffer"
	.size	_ZTS7IBuffer, 9

	.type	_ZTI7IBuffer,%object    @ @_ZTI7IBuffer
	.section	.data.rel.ro._ZTI7IBuffer,"aGw",%progbits,_ZTI7IBuffer,comdat
	.weak	_ZTI7IBuffer
	.p2align	2
_ZTI7IBuffer:
	.long	_ZTVN10__cxxabiv117__class_type_infoE+8
	.long	_ZTS7IBuffer
	.size	_ZTI7IBuffer, 8

	.type	_ZTI12IVideoPacket,%object @ @_ZTI12IVideoPacket
	.section	.data.rel.ro._ZTI12IVideoPacket,"aGw",%progbits,_ZTI12IVideoPacket,comdat
	.weak	_ZTI12IVideoPacket
	.p2align	2
_ZTI12IVideoPacket:
	.long	_ZTVN10__cxxabiv120__si_class_type_infoE+8
	.long	_ZTS12IVideoPacket
	.long	_ZTI7IBuffer
	.size	_ZTI12IVideoPacket, 12

	.type	_ZTI14AVCVideoPacket,%object @ @_ZTI14AVCVideoPacket
	.section	.data.rel.ro._ZTI14AVCVideoPacket,"aw",%progbits
	.globl	_ZTI14AVCVideoPacket
	.p2align	2
_ZTI14AVCVideoPacket:
	.long	_ZTVN10__cxxabiv120__si_class_type_infoE+8
	.long	_ZTS14AVCVideoPacket
	.long	_ZTI12IVideoPacket
	.size	_ZTI14AVCVideoPacket, 12

	.type	_ZTV12IVideoPacket,%object @ @_ZTV12IVideoPacket
	.section	.data.rel.ro._ZTV12IVideoPacket,"aGw",%progbits,_ZTV12IVideoPacket,comdat
	.weak	_ZTV12IVideoPacket
	.p2align	2
_ZTV12IVideoPacket:
	.long	0
	.long	_ZTI12IVideoPacket
	.long	__cxa_pure_virtual
	.long	__cxa_pure_virtual
	.size	_ZTV12IVideoPacket, 16

	.type	_ZTV7IBuffer,%object    @ @_ZTV7IBuffer
	.section	.data.rel.ro._ZTV7IBuffer,"aGw",%progbits,_ZTV7IBuffer,comdat
	.weak	_ZTV7IBuffer
	.p2align	2
_ZTV7IBuffer:
	.long	0
	.long	_ZTI7IBuffer
	.long	__cxa_pure_virtual
	.long	__cxa_pure_virtual
	.size	_ZTV7IBuffer, 16

	.file	23 "<stdin>"
	.section	".note.GNU-stack","",%progbits