	.text
	.syntax unified
	.eabi_attribute	67, "2.09"	@ Tag_conformance
	.eabi_attribute	6, 10	@ Tag_CPU_arch
	.eabi_attribute	7, 65	@ Tag_CPU_arch_profile
	.eabi_attribute	8, 1	@ Tag_ARM_ISA_use
	.eabi_attribute	9, 2	@ Tag_THUMB_ISA_use
	.fpu	neon
	.eabi_attribute	34, 1	@ Tag_CPU_unaligned_access
	.eabi_attribute	15, 1	@ Tag_ABI_PCS_RW_data
	.eabi_attribute	16, 1	@ Tag_ABI_PCS_RO_data
	.eabi_attribute	17, 2	@ Tag_ABI_PCS_GOT_use
	.eabi_attribute	20, 1	@ Tag_ABI_FP_denormal
	.eabi_attribute	21, 1	@ Tag_ABI_FP_exceptions
	.eabi_attribute	23, 3	@ Tag_ABI_FP_number_model
	.eabi_attribute	24, 1	@ Tag_ABI_align_needed
	.eabi_attribute	25, 1	@ Tag_ABI_align_preserved
	.eabi_attribute	38, 1	@ Tag_ABI_FP_16bit_format
	.eabi_attribute	18, 4	@ Tag_ABI_PCS_wchar_t
	.eabi_attribute	26, 2	@ Tag_ABI_enum_size
	.eabi_attribute	14, 0	@ Tag_ABI_PCS_R9_use
	.file	"BitStream.cpp"
	.file	1 "/Users/bytedance" "Library/Android/sdk/ndk/21.4.7075529/toolchains/llvm/prebuilt/darwin-x86_64/sysroot/usr/include/c++/v1/__nullptr"
	.file	2 "/Users/bytedance" "Library/Android/sdk/ndk/21.4.7075529/toolchains/llvm/prebuilt/darwin-x86_64/sysroot/usr/include/c++/v1/stddef.h"
	.section	.text._ZN9BitStreamC2EPh,"ax",%progbits
	.globl	_ZN9BitStreamC2EPh      @ -- Begin function _ZN9BitStreamC2EPh
	.p2align	2
	.type	_ZN9BitStreamC2EPh,%function
	.code	16                      @ @_ZN9BitStreamC2EPh
	.thumb_func
_ZN9BitStreamC2EPh:
.Lfunc_begin0:
	.file	3 "/Users/bytedance/code/my/LiveStream/AndroidPublisher/rtmplive" "src/main/cpp/BitStream.cpp"
	.loc	3 7 0                   @ src/main/cpp/BitStream.cpp:7:0
	.fnstart
	.cfi_sections .debug_frame
	.cfi_startproc
@ %bb.0:
	.pad	#8
	sub	sp, #8
	.cfi_def_cfa_offset 8
	str	r0, [sp, #4]
	str	r1, [sp]
	ldr	r0, [sp, #4]
.Ltmp0:
	.loc	3 7 62 prologue_end     @ src/main/cpp/BitStream.cpp:7:62
	ldr	r1, .LCPI0_0
.LPC0_0:
	add	r1, pc
	ldr	r1, [r1]
	adds	r1, #8
	str	r1, [r0]
	.loc	3 7 45 is_stmt 0        @ src/main/cpp/BitStream.cpp:7:45
	ldr	r1, [sp]
	.loc	3 7 39                  @ src/main/cpp/BitStream.cpp:7:39
	str	r1, [r0, #4]
	movs	r1, #0
	.loc	3 7 52                  @ src/main/cpp/BitStream.cpp:7:52
	str	r1, [r0, #8]
	.loc	3 8 1 is_stmt 1         @ src/main/cpp/BitStream.cpp:8:1
	add	sp, #8
	bx	lr
.Ltmp1:
	.p2align	2
@ %bb.1:
	.loc	3 0 1 is_stmt 0         @ src/main/cpp/BitStream.cpp:0:1
.LCPI0_0:
.Ltmp2:
	.long	_ZTV9BitStream(GOT_PREL)-((.LPC0_0+4)-.Ltmp2)
.Lfunc_end0:
	.size	_ZN9BitStreamC2EPh, .Lfunc_end0-_ZN9BitStreamC2EPh
	.cfi_endproc
	.file	4 "/Users/bytedance" "Library/Android/sdk/ndk/21.4.7075529/toolchains/llvm/prebuilt/darwin-x86_64/sysroot/usr/include/stdint.h"
	.file	5 "/Users/bytedance/code/my/LiveStream/AndroidPublisher/rtmplive" "src/main/cpp/BitStream.h"
	.fnend
                                        @ -- End function
	.section	.text._ZN9BitStreamD2Ev,"ax",%progbits
	.globl	_ZN9BitStreamD2Ev       @ -- Begin function _ZN9BitStreamD2Ev
	.p2align	1
	.type	_ZN9BitStreamD2Ev,%function
	.code	16                      @ @_ZN9BitStreamD2Ev
	.thumb_func
_ZN9BitStreamD2Ev:
.Lfunc_begin1:
	.loc	3 10 0 is_stmt 1        @ src/main/cpp/BitStream.cpp:10:0
	.fnstart
	.cfi_startproc
@ %bb.0:
	.pad	#4
	sub	sp, #4
	.cfi_def_cfa_offset 4
	str	r0, [sp]
	ldr	r0, [sp]
.Ltmp3:
	.loc	3 11 1 prologue_end     @ src/main/cpp/BitStream.cpp:11:1
	add	sp, #4
	bx	lr
.Ltmp4:
.Lfunc_end1:
	.size	_ZN9BitStreamD2Ev, .Lfunc_end1-_ZN9BitStreamD2Ev
	.cfi_endproc
	.fnend
                                        @ -- End function
	.section	.text._ZN9BitStreamD0Ev,"ax",%progbits
	.globl	_ZN9BitStreamD0Ev       @ -- Begin function _ZN9BitStreamD0Ev
	.p2align	1
	.type	_ZN9BitStreamD0Ev,%function
	.code	16                      @ @_ZN9BitStreamD0Ev
	.thumb_func
_ZN9BitStreamD0Ev:
.Lfunc_begin2:
	.loc	3 10 0                  @ src/main/cpp/BitStream.cpp:10:0
	.fnstart
	.cfi_startproc
@ %bb.0:
	.save	{r7, lr}
	push	{r7, lr}
	.cfi_def_cfa_offset 8
	.cfi_offset lr, -4
	.cfi_offset r7, -8
	.setfp	r7, sp
	mov	r7, sp
	.cfi_def_cfa_register r7
	.pad	#16
	sub	sp, #16
	str	r0, [sp, #12]
	ldr	r0, [sp, #12]
.Ltmp5:
	.loc	3 10 25 prologue_end    @ src/main/cpp/BitStream.cpp:10:25
	str	r0, [sp, #8]            @ 4-byte Spill
	bl	_ZN9BitStreamD1Ev
	ldr	r1, [sp, #8]            @ 4-byte Reload
	str	r0, [sp, #4]            @ 4-byte Spill
	mov	r0, r1
	bl	_ZdlPv
	.loc	3 11 1                  @ src/main/cpp/BitStream.cpp:11:1
	add	sp, #16
	pop	{r7, pc}
.Ltmp6:
.Lfunc_end2:
	.size	_ZN9BitStreamD0Ev, .Lfunc_end2-_ZN9BitStreamD0Ev
	.cfi_endproc
	.fnend
                                        @ -- End function
	.section	.text._ZN9BitStream8ReadBitsEi,"ax",%progbits
	.globl	_ZN9BitStream8ReadBitsEi @ -- Begin function _ZN9BitStream8ReadBitsEi
	.p2align	1
	.type	_ZN9BitStream8ReadBitsEi,%function
	.code	16                      @ @_ZN9BitStream8ReadBitsEi
	.thumb_func
_ZN9BitStream8ReadBitsEi:
.Lfunc_begin3:
	.loc	3 13 0                  @ src/main/cpp/BitStream.cpp:13:0
	.fnstart
	.cfi_startproc
@ %bb.0:
	.save	{r7, lr}
	push	{r7, lr}
	.cfi_def_cfa_offset 8
	.cfi_offset lr, -4
	.cfi_offset r7, -8
	.setfp	r7, sp
	mov	r7, sp
	.cfi_def_cfa_register r7
	.pad	#24
	sub	sp, #24
	str	r0, [sp, #20]
	str	r1, [sp, #16]
	ldr	r0, [sp, #20]
	movs	r1, #0
.Ltmp7:
	.loc	3 14 9 prologue_end     @ src/main/cpp/BitStream.cpp:14:9
	str	r1, [sp, #12]
.Ltmp8:
	.loc	3 15 14                 @ src/main/cpp/BitStream.cpp:15:14
	str	r1, [sp, #8]
	.loc	3 15 10 is_stmt 0       @ src/main/cpp/BitStream.cpp:15:10
	str	r0, [sp, #4]            @ 4-byte Spill
	b	.LBB3_1
.LBB3_1:                                @ =>This Inner Loop Header: Depth=1
.Ltmp9:
	.loc	3 15 21                 @ src/main/cpp/BitStream.cpp:15:21
	ldr	r0, [sp, #8]
	.loc	3 15 25                 @ src/main/cpp/BitStream.cpp:15:25
	ldr	r1, [sp, #16]
.Ltmp10:
	.loc	3 15 5                  @ src/main/cpp/BitStream.cpp:15:5
	cmp	r0, r1
	bge	.LBB3_4
	b	.LBB3_2
.LBB3_2:                                @   in Loop: Header=BB3_1 Depth=1
.Ltmp11:
	.loc	3 16 16 is_stmt 1       @ src/main/cpp/BitStream.cpp:16:16
	ldr	r0, [sp, #12]
	lsls	r0, r0, #1
	str	r0, [sp, #12]
	.loc	3 17 19                 @ src/main/cpp/BitStream.cpp:17:19
	ldr	r0, [sp, #4]            @ 4-byte Reload
	bl	_ZN9BitStream9ReadBits1Ev
	.loc	3 17 16 is_stmt 0       @ src/main/cpp/BitStream.cpp:17:16
	ldr	r1, [sp, #12]
	orrs	r0, r1
	str	r0, [sp, #12]
	.loc	3 18 5 is_stmt 1        @ src/main/cpp/BitStream.cpp:18:5
	b	.LBB3_3
.Ltmp12:
.LBB3_3:                                @   in Loop: Header=BB3_1 Depth=1
	.loc	3 15 31                 @ src/main/cpp/BitStream.cpp:15:31
	ldr	r0, [sp, #8]
	adds	r0, #1
	str	r0, [sp, #8]
	.loc	3 15 5 is_stmt 0        @ src/main/cpp/BitStream.cpp:15:5
	b	.LBB3_1
.Ltmp13:
.LBB3_4:
	.loc	3 19 12 is_stmt 1       @ src/main/cpp/BitStream.cpp:19:12
	ldr	r0, [sp, #12]
	.loc	3 19 5 is_stmt 0        @ src/main/cpp/BitStream.cpp:19:5
	add	sp, #24
	pop	{r7, pc}
.Ltmp14:
.Lfunc_end3:
	.size	_ZN9BitStream8ReadBitsEi, .Lfunc_end3-_ZN9BitStream8ReadBitsEi
	.cfi_endproc
	.fnend
                                        @ -- End function
	.section	.text._ZN9BitStream9ReadBits1Ev,"ax",%progbits
	.globl	_ZN9BitStream9ReadBits1Ev @ -- Begin function _ZN9BitStream9ReadBits1Ev
	.p2align	1
	.type	_ZN9BitStream9ReadBits1Ev,%function
	.code	16                      @ @_ZN9BitStream9ReadBits1Ev
	.thumb_func
_ZN9BitStream9ReadBits1Ev:
.Lfunc_begin4:
	.loc	3 22 0 is_stmt 1        @ src/main/cpp/BitStream.cpp:22:0
	.fnstart
	.cfi_startproc
@ %bb.0:
	.pad	#8
	sub	sp, #8
	.cfi_def_cfa_offset 8
	str	r0, [sp, #4]
	ldr	r0, [sp, #4]
.Ltmp15:
	.loc	3 23 22 prologue_end    @ src/main/cpp/BitStream.cpp:23:22
	ldr	r1, [r0, #4]
	.loc	3 23 28 is_stmt 0       @ src/main/cpp/BitStream.cpp:23:28
	ldr	r2, [r0, #8]
	.loc	3 23 35                 @ src/main/cpp/BitStream.cpp:23:35
	lsrs	r2, r2, #3
	.loc	3 23 22                 @ src/main/cpp/BitStream.cpp:23:22
	ldrb	r1, [r1, r2]
	.loc	3 23 13                 @ src/main/cpp/BitStream.cpp:23:13
	strb.w	r1, [sp, #3]
	.loc	3 24 16 is_stmt 1       @ src/main/cpp/BitStream.cpp:24:16
	ldr	r1, [r0, #8]
	.loc	3 24 23 is_stmt 0       @ src/main/cpp/BitStream.cpp:24:23
	and	r1, r1, #7
	.loc	3 24 12                 @ src/main/cpp/BitStream.cpp:24:12
	ldrb.w	r2, [sp, #3]
	lsl.w	r1, r2, r1
	strb.w	r1, [sp, #3]
	.loc	3 25 12 is_stmt 1       @ src/main/cpp/BitStream.cpp:25:12
	ldrb.w	r1, [sp, #3]
	lsrs	r1, r1, #7
	strb.w	r1, [sp, #3]
	.loc	3 26 11                 @ src/main/cpp/BitStream.cpp:26:11
	ldr	r1, [r0, #8]
	adds	r1, #1
	str	r1, [r0, #8]
	.loc	3 27 12                 @ src/main/cpp/BitStream.cpp:27:12
	ldrb.w	r0, [sp, #3]
	.loc	3 27 5 is_stmt 0        @ src/main/cpp/BitStream.cpp:27:5
	add	sp, #8
	bx	lr
.Ltmp16:
.Lfunc_end4:
	.size	_ZN9BitStream9ReadBits1Ev, .Lfunc_end4-_ZN9BitStream9ReadBits1Ev
	.cfi_endproc
	.fnend
                                        @ -- End function
	.type	_ZTV9BitStream,%object  @ @_ZTV9BitStream
	.section	.data.rel.ro._ZTV9BitStream,"aw",%progbits
	.globl	_ZTV9BitStream
	.p2align	2
_ZTV9BitStream:
	.long	0
	.long	_ZTI9BitStream
	.long	_ZN9BitStreamD1Ev
	.long	_ZN9BitStreamD0Ev
	.size	_ZTV9BitStream, 16

	.type	_ZTS9BitStream,%object  @ @_ZTS9BitStream
	.section	.rodata._ZTS9BitStream,"a",%progbits
	.globl	_ZTS9BitStream
_ZTS9BitStream:
	.asciz	"9BitStream"
	.size	_ZTS9BitStream, 11

	.type	_ZTI9BitStream,%object  @ @_ZTI9BitStream
	.section	.data.rel.ro._ZTI9BitStream,"aw",%progbits
	.globl	_ZTI9BitStream
	.p2align	2
_ZTI9BitStream:
	.long	_ZTVN10__cxxabiv117__class_type_infoE+8
	.long	_ZTS9BitStream
	.size	_ZTI9BitStream, 8

	.section	".note.GNU-stack","",%progbits