	.text
	.syntax unified
	.eabi_attribute	67, "2.09"	@ Tag_conformance
	.eabi_attribute	6, 10	@ Tag_CPU_arch
	.eabi_attribute	7, 65	@ Tag_CPU_arch_profile
	.eabi_attribute	8, 1	@ Tag_ARM_ISA_use
	.eabi_attribute	9, 2	@ Tag_THUMB_ISA_use
	.fpu	neon
	.eabi_attribute	34, 1	@ Tag_CPU_unaligned_access
	.eabi_attribute	15, 1	@ Tag_ABI_PCS_RW_data
	.eabi_attribute	16, 1	@ Tag_ABI_PCS_RO_data
	.eabi_attribute	17, 2	@ Tag_ABI_PCS_GOT_use
	.eabi_attribute	20, 1	@ Tag_ABI_FP_denormal
	.eabi_attribute	21, 1	@ Tag_ABI_FP_exceptions
	.eabi_attribute	23, 3	@ Tag_ABI_FP_number_model
	.eabi_attribute	24, 1	@ Tag_ABI_align_needed
	.eabi_attribute	25, 1	@ Tag_ABI_align_preserved
	.eabi_attribute	38, 1	@ Tag_ABI_FP_16bit_format
	.eabi_attribute	18, 4	@ Tag_ABI_PCS_wchar_t
	.eabi_attribute	26, 2	@ Tag_ABI_enum_size
	.eabi_attribute	14, 0	@ Tag_ABI_PCS_R9_use
	.file	"FLVTag.cpp"
	.file	1 "/Users/bytedance" "Library/Android/sdk/ndk/21.4.7075529/toolchains/llvm/prebuilt/darwin-x86_64/sysroot/usr/include/c++/v1/__nullptr"
	.file	2 "/Users/bytedance" "Library/Android/sdk/ndk/21.4.7075529/toolchains/llvm/prebuilt/darwin-x86_64/sysroot/usr/include/c++/v1/stddef.h"
	.file	3 "/Users/bytedance" "Library/Android/sdk/ndk/21.4.7075529/toolchains/llvm/prebuilt/darwin-x86_64/lib64/clang/9.0.9/include/stddef.h"
	.file	4 "/Users/bytedance" "Library/Android/sdk/ndk/21.4.7075529/toolchains/llvm/prebuilt/darwin-x86_64/sysroot/usr/include/c++/v1/cstddef"
	.file	5 "/Users/bytedance" "Library/Android/sdk/ndk/21.4.7075529/toolchains/llvm/prebuilt/darwin-x86_64/lib64/clang/9.0.9/include/__stddef_max_align_t.h"
	.file	6 "/Users/bytedance" "Library/Android/sdk/ndk/21.4.7075529/toolchains/llvm/prebuilt/darwin-x86_64/sysroot/usr/include/c++/v1/cstdlib"
	.file	7 "/Users/bytedance" "Library/Android/sdk/ndk/21.4.7075529/toolchains/llvm/prebuilt/darwin-x86_64/sysroot/usr/include/stdlib.h"
	.file	8 "/Users/bytedance" "Library/Android/sdk/ndk/21.4.7075529/toolchains/llvm/prebuilt/darwin-x86_64/sysroot/usr/include/android/legacy_stdlib_inlines.h"
	.file	9 "/Users/bytedance" "Library/Android/sdk/ndk/21.4.7075529/toolchains/llvm/prebuilt/darwin-x86_64/sysroot/usr/include/malloc.h"
	.file	10 "/Users/bytedance" "Library/Android/sdk/ndk/21.4.7075529/toolchains/llvm/prebuilt/darwin-x86_64/sysroot/usr/include/c++/v1/math.h"
	.file	11 "/Users/bytedance" "Library/Android/sdk/ndk/21.4.7075529/toolchains/llvm/prebuilt/darwin-x86_64/sysroot/usr/local/include/stdlib.h"
	.file	12 "/Users/bytedance" "Library/Android/sdk/ndk/21.4.7075529/toolchains/llvm/prebuilt/darwin-x86_64/sysroot/usr/include/stdint.h"
	.file	13 "/Users/bytedance" "Library/Android/sdk/ndk/21.4.7075529/toolchains/llvm/prebuilt/darwin-x86_64/sysroot/usr/include/c++/v1/cstdint"
	.file	14 "/Users/bytedance" "Library/Android/sdk/ndk/21.4.7075529/toolchains/llvm/prebuilt/darwin-x86_64/sysroot/usr/include/c++/v1/cstring"
	.file	15 "/Users/bytedance" "Library/Android/sdk/ndk/21.4.7075529/toolchains/llvm/prebuilt/darwin-x86_64/sysroot/usr/include/string.h"
	.file	16 "/Users/bytedance" "Library/Android/sdk/ndk/21.4.7075529/toolchains/llvm/prebuilt/darwin-x86_64/sysroot/usr/include/bits/fortify/string.h"
	.file	17 "/Users/bytedance" "Library/Android/sdk/ndk/21.4.7075529/toolchains/llvm/prebuilt/darwin-x86_64/sysroot/usr/include/c++/v1/string.h"
	.section	.text._ZN6FLVTagC2EhjjP11IFLVTagData,"ax",%progbits
	.globl	_ZN6FLVTagC2EhjjP11IFLVTagData @ -- Begin function _ZN6FLVTagC2EhjjP11IFLVTagData
	.p2align	2
	.type	_ZN6FLVTagC2EhjjP11IFLVTagData,%function
	.code	16                      @ @_ZN6FLVTagC2EhjjP11IFLVTagData
	.thumb_func
_ZN6FLVTagC2EhjjP11IFLVTagData:
.Lfunc_begin0:
	.file	18 "/Users/bytedance/code/my/LiveStream/AndroidPublisher/rtmplive" "src/main/cpp/FLVTag.cpp"
	.loc	18 14 0                 @ src/main/cpp/FLVTag.cpp:14:0
	.fnstart
	.cfi_sections .debug_frame
	.cfi_startproc
@ %bb.0:
	.save	{r4, r5, r7, lr}
	push	{r4, r5, r7, lr}
	.cfi_def_cfa_offset 16
	.cfi_offset lr, -4
	.cfi_offset r7, -8
	.cfi_offset r5, -12
	.cfi_offset r4, -16
	.setfp	r7, sp, #8
	add	r7, sp, #8
	.cfi_def_cfa r7, 8
	.pad	#40
	sub	sp, #40
	ldr.w	r12, [r7, #8]
	mov	lr, r1
	ldr	r4, .LCPI0_0
.LPC0_0:
	add	r4, pc
	ldr	r4, [r4]
	ldr	r5, [r4]
	str	r5, [sp, #36]
	str	r0, [sp, #28]
	strb	r1, [r7, #-21]
	str	r2, [sp, #20]
	str	r3, [sp, #16]
	ldr	r0, [sp, #28]
.Ltmp0:
	.loc	18 8 9 prologue_end     @ src/main/cpp/FLVTag.cpp:8:9
	str	r0, [sp, #12]           @ 4-byte Spill
	str.w	r12, [sp, #8]           @ 4-byte Spill
	str.w	lr, [sp, #4]            @ 4-byte Spill
	str	r4, [sp]                @ 4-byte Spill
	bl	_ZN7IBufferC2Ev
	.loc	18 14 1                 @ src/main/cpp/FLVTag.cpp:14:1
	ldr	r0, .LCPI0_1
.LPC0_1:
	add	r0, pc
	ldr	r0, [r0]
	adds	r0, #8
	ldr	r1, [sp, #12]           @ 4-byte Reload
	str	r0, [r1]
	.loc	18 13 14                @ src/main/cpp/FLVTag.cpp:13:14
	ldrb	r0, [r7, #-21]
	.loc	18 13 4 is_stmt 0       @ src/main/cpp/FLVTag.cpp:13:4
	strb.w	r0, [r1, #136]
	.loc	18 13 36                @ src/main/cpp/FLVTag.cpp:13:36
	ldr	r0, [sp, #20]
	.loc	18 13 25                @ src/main/cpp/FLVTag.cpp:13:25
	str.w	r0, [r1, #140]
	.loc	18 13 60                @ src/main/cpp/FLVTag.cpp:13:60
	ldr	r0, [sp, #16]
	.loc	18 13 48                @ src/main/cpp/FLVTag.cpp:13:48
	str.w	r0, [r1, #144]
	.loc	18 13 78                @ src/main/cpp/FLVTag.cpp:13:78
	ldr	r0, [r7, #8]
	.loc	18 13 72                @ src/main/cpp/FLVTag.cpp:13:72
	str.w	r0, [r1, #148]
	movs	r0, #0
.Ltmp1:
	.loc	18 15 9 is_stmt 1       @ src/main/cpp/FLVTag.cpp:15:9
	str	r0, [sp, #32]
	.loc	18 16 20                @ src/main/cpp/FLVTag.cpp:16:20
	ldrb	r2, [r7, #-21]
	.loc	18 16 5 is_stmt 0       @ src/main/cpp/FLVTag.cpp:16:5
	adds	r3, r1, #4
	.loc	18 16 14                @ src/main/cpp/FLVTag.cpp:16:14
	ldr.w	r12, [sp, #32]
	add.w	lr, r12, #1
	str.w	lr, [sp, #32]
	.loc	18 16 18                @ src/main/cpp/FLVTag.cpp:16:18
	strb.w	r2, [r3, r12]
	.loc	18 18 21 is_stmt 1      @ src/main/cpp/FLVTag.cpp:18:21
	ldrh.w	r2, [sp, #22]
	.loc	18 18 14 is_stmt 0      @ src/main/cpp/FLVTag.cpp:18:14
	ldr.w	r12, [sp, #32]
	add.w	lr, r12, #1
	str.w	lr, [sp, #32]
	.loc	18 18 18                @ src/main/cpp/FLVTag.cpp:18:18
	strb.w	r2, [r3, r12]
	.loc	18 19 21 is_stmt 1      @ src/main/cpp/FLVTag.cpp:19:21
	ldr	r2, [sp, #20]
	.loc	18 19 31 is_stmt 0      @ src/main/cpp/FLVTag.cpp:19:31
	lsrs	r2, r2, #8
	.loc	18 19 14                @ src/main/cpp/FLVTag.cpp:19:14
	ldr.w	r12, [sp, #32]
	add.w	lr, r12, #1
	str.w	lr, [sp, #32]
	.loc	18 19 18                @ src/main/cpp/FLVTag.cpp:19:18
	strb.w	r2, [r3, r12]
	.loc	18 20 21 is_stmt 1      @ src/main/cpp/FLVTag.cpp:20:21
	ldr	r2, [sp, #20]
	.loc	18 20 14 is_stmt 0      @ src/main/cpp/FLVTag.cpp:20:14
	ldr.w	r12, [sp, #32]
	add.w	lr, r12, #1
	str.w	lr, [sp, #32]
	.loc	18 20 18                @ src/main/cpp/FLVTag.cpp:20:18
	strb.w	r2, [r3, r12]
	.loc	18 22 21 is_stmt 1      @ src/main/cpp/FLVTag.cpp:22:21
	ldrh.w	r2, [sp, #18]
	.loc	18 22 14 is_stmt 0      @ src/main/cpp/FLVTag.cpp:22:14
	ldr.w	r12, [sp, #32]
	add.w	lr, r12, #1
	str.w	lr, [sp, #32]
	.loc	18 22 18                @ src/main/cpp/FLVTag.cpp:22:18
	strb.w	r2, [r3, r12]
	.loc	18 23 21 is_stmt 1      @ src/main/cpp/FLVTag.cpp:23:21
	ldr	r2, [sp, #16]
	.loc	18 23 32 is_stmt 0      @ src/main/cpp/FLVTag.cpp:23:32
	lsrs	r2, r2, #8
	.loc	18 23 14                @ src/main/cpp/FLVTag.cpp:23:14
	ldr.w	r12, [sp, #32]
	add.w	lr, r12, #1
	str.w	lr, [sp, #32]
	.loc	18 23 18                @ src/main/cpp/FLVTag.cpp:23:18
	strb.w	r2, [r3, r12]
	.loc	18 24 21 is_stmt 1      @ src/main/cpp/FLVTag.cpp:24:21
	ldr	r2, [sp, #16]
	.loc	18 24 14 is_stmt 0      @ src/main/cpp/FLVTag.cpp:24:14
	ldr.w	r12, [sp, #32]
	add.w	lr, r12, #1
	str.w	lr, [sp, #32]
	.loc	18 24 18                @ src/main/cpp/FLVTag.cpp:24:18
	strb.w	r2, [r3, r12]
	.loc	18 25 21 is_stmt 1      @ src/main/cpp/FLVTag.cpp:25:21
	ldrb.w	r2, [sp, #23]
	.loc	18 25 14 is_stmt 0      @ src/main/cpp/FLVTag.cpp:25:14
	ldr.w	r12, [sp, #32]
	add.w	lr, r12, #1
	str.w	lr, [sp, #32]
	.loc	18 25 18                @ src/main/cpp/FLVTag.cpp:25:18
	strb.w	r2, [r3, r12]
	.loc	18 27 14 is_stmt 1      @ src/main/cpp/FLVTag.cpp:27:14
	ldr	r2, [sp, #32]
	add.w	r12, r2, #1
	str.w	r12, [sp, #32]
	.loc	18 27 18 is_stmt 0      @ src/main/cpp/FLVTag.cpp:27:18
	strb	r0, [r3, r2]
	.loc	18 28 14 is_stmt 1      @ src/main/cpp/FLVTag.cpp:28:14
	ldr	r2, [sp, #32]
	add.w	r12, r2, #1
	str.w	r12, [sp, #32]
	.loc	18 28 18 is_stmt 0      @ src/main/cpp/FLVTag.cpp:28:18
	strb	r0, [r3, r2]
	.loc	18 29 14 is_stmt 1      @ src/main/cpp/FLVTag.cpp:29:14
	ldr	r2, [sp, #32]
	add.w	r12, r2, #1
	str.w	r12, [sp, #32]
	.loc	18 29 18 is_stmt 0      @ src/main/cpp/FLVTag.cpp:29:18
	strb	r0, [r3, r2]
	.loc	18 31 13 is_stmt 1      @ src/main/cpp/FLVTag.cpp:31:13
	ldr	r0, [sp, #32]
	.loc	18 31 11 is_stmt 0      @ src/main/cpp/FLVTag.cpp:31:11
	str.w	r0, [r1, #132]
	ldr	r0, [sp]                @ 4-byte Reload
	ldr	r2, [r0]
	ldr	r3, [sp, #36]
	cmp	r2, r3
	bne	.LBB0_2
	b	.LBB0_1
.Ltmp2:
.LBB0_1:                                @ %SP_return
	.loc	18 32 1 is_stmt 1       @ src/main/cpp/FLVTag.cpp:32:1
	ldr	r0, [sp, #12]           @ 4-byte Reload
	add	sp, #40
	pop	{r4, r5, r7, pc}
.LBB0_2:                                @ %CallStackCheckFailBlk
	.loc	18 0 0 is_stmt 0        @ src/main/cpp/FLVTag.cpp:0:0
	bl	__stack_chk_fail
.Ltmp3:
	.p2align	2
@ %bb.3:
.LCPI0_0:
.Ltmp4:
	.long	__stack_chk_guard(GOT_PREL)-((.LPC0_0+4)-.Ltmp4)
.LCPI0_1:
.Ltmp5:
	.long	_ZTV6FLVTag(GOT_PREL)-((.LPC0_1+4)-.Ltmp5)
.Lfunc_end0:
	.size	_ZN6FLVTagC2EhjjP11IFLVTagData, .Lfunc_end0-_ZN6FLVTagC2EhjjP11IFLVTagData
	.cfi_endproc
	.file	19 "/Users/bytedance/code/my/LiveStream/AndroidPublisher/rtmplive" "src/main/cpp/IBuffer.h"
	.file	20 "/Users/bytedance/code/my/LiveStream/AndroidPublisher/rtmplive" "src/main/cpp/FLVTag.h"
	.file	21 "/Users/bytedance/code/my/LiveStream/AndroidPublisher/rtmplive" "src/main/cpp/IFLVTagData.h"
	.fnend
                                        @ -- End function
	.section	.text._ZN7IBufferC2Ev,"axG",%progbits,_ZN7IBufferC2Ev,comdat
	.weak	_ZN7IBufferC2Ev         @ -- Begin function _ZN7IBufferC2Ev
	.p2align	2
	.type	_ZN7IBufferC2Ev,%function
	.code	16                      @ @_ZN7IBufferC2Ev
	.thumb_func
_ZN7IBufferC2Ev:
.Lfunc_begin1:
	.loc	19 9 0 is_stmt 1        @ src/main/cpp/IBuffer.h:9:0
	.fnstart
	.cfi_startproc
@ %bb.0:
	.pad	#4
	sub	sp, #4
	.cfi_def_cfa_offset 4
	str	r0, [sp]
	ldr	r0, [sp]
.Ltmp6:
	.loc	19 9 7 prologue_end     @ src/main/cpp/IBuffer.h:9:7
	ldr	r1, .LCPI1_0
.LPC1_0:
	add	r1, pc
	ldr	r1, [r1]
	adds	r1, #8
	str	r1, [r0]
	add	sp, #4
	bx	lr
.Ltmp7:
	.p2align	2
@ %bb.1:
	.loc	19 0 7 is_stmt 0        @ src/main/cpp/IBuffer.h:0:7
.LCPI1_0:
.Ltmp8:
	.long	_ZTV7IBuffer(GOT_PREL)-((.LPC1_0+4)-.Ltmp8)
.Lfunc_end1:
	.size	_ZN7IBufferC2Ev, .Lfunc_end1-_ZN7IBufferC2Ev
	.cfi_endproc
	.fnend
                                        @ -- End function
	.section	.text._ZN6FLVTagD2Ev,"ax",%progbits
	.globl	_ZN6FLVTagD2Ev          @ -- Begin function _ZN6FLVTagD2Ev
	.p2align	1
	.type	_ZN6FLVTagD2Ev,%function
	.code	16                      @ @_ZN6FLVTagD2Ev
	.thumb_func
_ZN6FLVTagD2Ev:
.Lfunc_begin2:
	.loc	18 34 0 is_stmt 1       @ src/main/cpp/FLVTag.cpp:34:0
	.fnstart
	.cfi_startproc
@ %bb.0:
	.pad	#4
	sub	sp, #4
	.cfi_def_cfa_offset 4
	str	r0, [sp]
	ldr	r0, [sp]
.Ltmp9:
	.loc	18 35 1 prologue_end    @ src/main/cpp/FLVTag.cpp:35:1
	add	sp, #4
	bx	lr
.Ltmp10:
.Lfunc_end2:
	.size	_ZN6FLVTagD2Ev, .Lfunc_end2-_ZN6FLVTagD2Ev
	.cfi_endproc
	.fnend
                                        @ -- End function
	.section	.text._ZN6FLVTagD0Ev,"ax",%progbits
	.globl	_ZN6FLVTagD0Ev          @ -- Begin function _ZN6FLVTagD0Ev
	.p2align	1
	.type	_ZN6FLVTagD0Ev,%function
	.code	16                      @ @_ZN6FLVTagD0Ev
	.thumb_func
_ZN6FLVTagD0Ev:
.Lfunc_begin3:
	.loc	18 34 0                 @ src/main/cpp/FLVTag.cpp:34:0
	.fnstart
	.cfi_startproc
@ %bb.0:
	.save	{r7, lr}
	push	{r7, lr}
	.cfi_def_cfa_offset 8
	.cfi_offset lr, -4
	.cfi_offset r7, -8
	.setfp	r7, sp
	mov	r7, sp
	.cfi_def_cfa_register r7
	.pad	#16
	sub	sp, #16
	str	r0, [sp, #12]
	ldr	r0, [sp, #12]
.Ltmp11:
	.loc	18 34 19 prologue_end   @ src/main/cpp/FLVTag.cpp:34:19
	str	r0, [sp, #8]            @ 4-byte Spill
	bl	_ZN6FLVTagD1Ev
	ldr	r1, [sp, #8]            @ 4-byte Reload
	str	r0, [sp, #4]            @ 4-byte Spill
	mov	r0, r1
	bl	_ZdlPv
	.loc	18 35 1                 @ src/main/cpp/FLVTag.cpp:35:1
	add	sp, #16
	pop	{r7, pc}
.Ltmp12:
.Lfunc_end3:
	.size	_ZN6FLVTagD0Ev, .Lfunc_end3-_ZN6FLVTagD0Ev
	.cfi_endproc
	.fnend
                                        @ -- End function
	.section	.text._ZN6FLVTag7WriteToEPc,"ax",%progbits
	.globl	_ZN6FLVTag7WriteToEPc   @ -- Begin function _ZN6FLVTag7WriteToEPc
	.p2align	1
	.type	_ZN6FLVTag7WriteToEPc,%function
	.code	16                      @ @_ZN6FLVTag7WriteToEPc
	.thumb_func
_ZN6FLVTag7WriteToEPc:
.Lfunc_begin4:
	.loc	18 37 0                 @ src/main/cpp/FLVTag.cpp:37:0
	.fnstart
	.cfi_startproc
@ %bb.0:
	.save	{r7, lr}
	push	{r7, lr}
	.cfi_def_cfa_offset 8
	.cfi_offset lr, -4
	.cfi_offset r7, -8
	.setfp	r7, sp
	mov	r7, sp
	.cfi_def_cfa_register r7
	.pad	#16
	sub	sp, #16
	str	r0, [sp, #12]
	str	r1, [sp, #8]
	ldr	r0, [sp, #12]
.Ltmp13:
	.loc	18 38 12 prologue_end   @ src/main/cpp/FLVTag.cpp:38:12
	ldr	r1, [sp, #8]
	.loc	18 38 20 is_stmt 0      @ src/main/cpp/FLVTag.cpp:38:20
	adds	r2, r0, #4
	.loc	18 38 29                @ src/main/cpp/FLVTag.cpp:38:29
	ldr.w	r3, [r0, #132]
	.loc	18 38 5                 @ src/main/cpp/FLVTag.cpp:38:5
	str	r0, [sp, #4]            @ 4-byte Spill
	mov	r0, r1
	mov	r1, r2
	mov	r2, r3
	bl	__aeabi_memcpy
	.loc	18 39 15 is_stmt 1      @ src/main/cpp/FLVTag.cpp:39:15
	ldr	r1, [sp, #4]            @ 4-byte Reload
	ldr.w	r2, [r1, #132]
	.loc	18 39 12 is_stmt 0      @ src/main/cpp/FLVTag.cpp:39:12
	ldr	r3, [sp, #8]
	add	r2, r3
	str	r2, [sp, #8]
	.loc	18 40 12 is_stmt 1      @ src/main/cpp/FLVTag.cpp:40:12
	ldr.w	r2, [r1, #148]
	.loc	18 40 27 is_stmt 0      @ src/main/cpp/FLVTag.cpp:40:27
	ldr	r1, [sp, #8]
	.loc	18 40 19                @ src/main/cpp/FLVTag.cpp:40:19
	ldr	r3, [r2]
	ldr	r3, [r3]
	str	r0, [sp]                @ 4-byte Spill
	mov	r0, r2
	blx	r3
	.loc	18 40 5                 @ src/main/cpp/FLVTag.cpp:40:5
	add	sp, #16
	pop	{r7, pc}
.Ltmp14:
.Lfunc_end4:
	.size	_ZN6FLVTag7WriteToEPc, .Lfunc_end4-_ZN6FLVTag7WriteToEPc
	.cfi_endproc
	.fnend
                                        @ -- End function
	.section	.text._ZN6FLVTag4SizeEv,"ax",%progbits
	.globl	_ZN6FLVTag4SizeEv       @ -- Begin function _ZN6FLVTag4SizeEv
	.p2align	1
	.type	_ZN6FLVTag4SizeEv,%function
	.code	16                      @ @_ZN6FLVTag4SizeEv
	.thumb_func
_ZN6FLVTag4SizeEv:
.Lfunc_begin5:
	.loc	18 43 0 is_stmt 1       @ src/main/cpp/FLVTag.cpp:43:0
	.fnstart
	.cfi_startproc
@ %bb.0:
	.save	{r7, lr}
	push	{r7, lr}
	.cfi_def_cfa_offset 8
	.cfi_offset lr, -4
	.cfi_offset r7, -8
	.setfp	r7, sp
	mov	r7, sp
	.cfi_def_cfa_register r7
	.pad	#8
	sub	sp, #8
	str	r0, [sp, #4]
	ldr	r0, [sp, #4]
.Ltmp15:
	.loc	18 44 12 prologue_end   @ src/main/cpp/FLVTag.cpp:44:12
	ldr.w	r1, [r0, #132]
	.loc	18 44 20 is_stmt 0      @ src/main/cpp/FLVTag.cpp:44:20
	ldr.w	r0, [r0, #148]
	.loc	18 44 27                @ src/main/cpp/FLVTag.cpp:44:27
	ldr	r2, [r0]
	ldr	r2, [r2, #4]
	str	r1, [sp]                @ 4-byte Spill
	blx	r2
	.loc	18 44 18                @ src/main/cpp/FLVTag.cpp:44:18
	ldr	r1, [sp]                @ 4-byte Reload
	add	r0, r1
	.loc	18 44 5                 @ src/main/cpp/FLVTag.cpp:44:5
	add	sp, #8
	pop	{r7, pc}
.Ltmp16:
.Lfunc_end5:
	.size	_ZN6FLVTag4SizeEv, .Lfunc_end5-_ZN6FLVTag4SizeEv
	.cfi_endproc
	.fnend
                                        @ -- End function
	.type	_ZTV6FLVTag,%object     @ @_ZTV6FLVTag
	.section	.data.rel.ro._ZTV6FLVTag,"aw",%progbits
	.globl	_ZTV6FLVTag
	.p2align	2
_ZTV6FLVTag:
	.long	0
	.long	_ZTI6FLVTag
	.long	_ZN6FLVTag7WriteToEPc
	.long	_ZN6FLVTag4SizeEv
	.long	_ZN6FLVTagD1Ev
	.long	_ZN6FLVTagD0Ev
	.size	_ZTV6FLVTag, 24

	.type	_ZTS6FLVTag,%object     @ @_ZTS6FLVTag
	.section	.rodata._ZTS6FLVTag,"a",%progbits
	.globl	_ZTS6FLVTag
_ZTS6FLVTag:
	.asciz	"6FLVTag"
	.size	_ZTS6FLVTag, 8

	.type	_ZTS7IBuffer,%object    @ @_ZTS7IBuffer
	.section	.rodata._ZTS7IBuffer,"aG",%progbits,_ZTS7IBuffer,comdat
	.weak	_ZTS7IBuffer
_ZTS7IBuffer:
	.asciz	"7IBuffer"
	.size	_ZTS7IBuffer, 9

	.type	_ZTI7IBuffer,%object    @ @_ZTI7IBuffer
	.section	.data.rel.ro._ZTI7IBuffer,"aGw",%progbits,_ZTI7IBuffer,comdat
	.weak	_ZTI7IBuffer
	.p2align	2
_ZTI7IBuffer:
	.long	_ZTVN10__cxxabiv117__class_type_infoE+8
	.long	_ZTS7IBuffer
	.size	_ZTI7IBuffer, 8

	.type	_ZTI6FLVTag,%object     @ @_ZTI6FLVTag
	.section	.data.rel.ro._ZTI6FLVTag,"aw",%progbits
	.globl	_ZTI6FLVTag
	.p2align	2
_ZTI6FLVTag:
	.long	_ZTVN10__cxxabiv121__vmi_class_type_infoE+8
	.long	_ZTS6FLVTag
	.long	0                       @ 0x0
	.long	1                       @ 0x1
	.long	_ZTI7IBuffer
	.long	0                       @ 0x0
	.size	_ZTI6FLVTag, 24

	.type	_ZTV7IBuffer,%object    @ @_ZTV7IBuffer
	.section	.data.rel.ro._ZTV7IBuffer,"aGw",%progbits,_ZTV7IBuffer,comdat
	.weak	_ZTV7IBuffer
	.p2align	2
_ZTV7IBuffer:
	.long	0
	.long	_ZTI7IBuffer
	.long	__cxa_pure_virtual
	.long	__cxa_pure_virtual
	.size	_ZTV7IBuffer, 16

	.file	22 "<stdin>"
	.section	".note.GNU-stack","",%progbits