	.text
	.syntax unified
	.eabi_attribute	67, "2.09"	@ Tag_conformance
	.eabi_attribute	6, 10	@ Tag_CPU_arch
	.eabi_attribute	7, 65	@ Tag_CPU_arch_profile
	.eabi_attribute	8, 1	@ Tag_ARM_ISA_use
	.eabi_attribute	9, 2	@ Tag_THUMB_ISA_use
	.fpu	neon
	.eabi_attribute	34, 1	@ Tag_CPU_unaligned_access
	.eabi_attribute	15, 1	@ Tag_ABI_PCS_RW_data
	.eabi_attribute	16, 1	@ Tag_ABI_PCS_RO_data
	.eabi_attribute	17, 2	@ Tag_ABI_PCS_GOT_use
	.eabi_attribute	20, 1	@ Tag_ABI_FP_denormal
	.eabi_attribute	21, 1	@ Tag_ABI_FP_exceptions
	.eabi_attribute	23, 3	@ Tag_ABI_FP_number_model
	.eabi_attribute	24, 1	@ Tag_ABI_align_needed
	.eabi_attribute	25, 1	@ Tag_ABI_align_preserved
	.eabi_attribute	38, 1	@ Tag_ABI_FP_16bit_format
	.eabi_attribute	18, 4	@ Tag_ABI_PCS_wchar_t
	.eabi_attribute	26, 2	@ Tag_ABI_enum_size
	.eabi_attribute	14, 0	@ Tag_ABI_PCS_R9_use
	.file	"H264Params.cpp"
	.file	1 "/Users/bytedance" "Library/Android/sdk/ndk/21.4.7075529/toolchains/llvm/prebuilt/darwin-x86_64/sysroot/usr/include/c++/v1/__nullptr"
	.file	2 "/Users/bytedance" "Library/Android/sdk/ndk/21.4.7075529/toolchains/llvm/prebuilt/darwin-x86_64/sysroot/usr/include/c++/v1/stddef.h"
	.file	3 "/Users/bytedance" "Library/Android/sdk/ndk/21.4.7075529/toolchains/llvm/prebuilt/darwin-x86_64/lib64/clang/9.0.9/include/stddef.h"
	.file	4 "/Users/bytedance" "Library/Android/sdk/ndk/21.4.7075529/toolchains/llvm/prebuilt/darwin-x86_64/sysroot/usr/include/c++/v1/cstddef"
	.file	5 "/Users/bytedance" "Library/Android/sdk/ndk/21.4.7075529/toolchains/llvm/prebuilt/darwin-x86_64/lib64/clang/9.0.9/include/__stddef_max_align_t.h"
	.file	6 "/Users/bytedance" "Library/Android/sdk/ndk/21.4.7075529/toolchains/llvm/prebuilt/darwin-x86_64/sysroot/usr/include/c++/v1/cstdlib"
	.file	7 "/Users/bytedance" "Library/Android/sdk/ndk/21.4.7075529/toolchains/llvm/prebuilt/darwin-x86_64/sysroot/usr/include/stdlib.h"
	.file	8 "/Users/bytedance" "Library/Android/sdk/ndk/21.4.7075529/toolchains/llvm/prebuilt/darwin-x86_64/sysroot/usr/include/android/legacy_stdlib_inlines.h"
	.file	9 "/Users/bytedance" "Library/Android/sdk/ndk/21.4.7075529/toolchains/llvm/prebuilt/darwin-x86_64/sysroot/usr/include/malloc.h"
	.file	10 "/Users/bytedance" "Library/Android/sdk/ndk/21.4.7075529/toolchains/llvm/prebuilt/darwin-x86_64/sysroot/usr/include/c++/v1/math.h"
	.file	11 "/Users/bytedance" "Library/Android/sdk/ndk/21.4.7075529/toolchains/llvm/prebuilt/darwin-x86_64/sysroot/usr/local/include/stdlib.h"
	.file	12 "/Users/bytedance" "Library/Android/sdk/ndk/21.4.7075529/toolchains/llvm/prebuilt/darwin-x86_64/sysroot/usr/include/c++/v1/cstring"
	.file	13 "/Users/bytedance" "Library/Android/sdk/ndk/21.4.7075529/toolchains/llvm/prebuilt/darwin-x86_64/sysroot/usr/include/string.h"
	.file	14 "/Users/bytedance" "Library/Android/sdk/ndk/21.4.7075529/toolchains/llvm/prebuilt/darwin-x86_64/sysroot/usr/include/bits/fortify/string.h"
	.file	15 "/Users/bytedance" "Library/Android/sdk/ndk/21.4.7075529/toolchains/llvm/prebuilt/darwin-x86_64/sysroot/usr/include/c++/v1/string.h"
	.file	16 "/Users/bytedance" "Library/Android/sdk/ndk/21.4.7075529/toolchains/llvm/prebuilt/darwin-x86_64/sysroot/usr/include/stdint.h"
	.file	17 "/Users/bytedance" "Library/Android/sdk/ndk/21.4.7075529/toolchains/llvm/prebuilt/darwin-x86_64/sysroot/usr/include/c++/v1/cstdint"
	.file	18 "/Users/bytedance" "Library/Android/sdk/ndk/21.4.7075529/toolchains/llvm/prebuilt/darwin-x86_64/sysroot/usr/include/bits/struct_file.h"
	.file	19 "/Users/bytedance" "Library/Android/sdk/ndk/21.4.7075529/toolchains/llvm/prebuilt/darwin-x86_64/sysroot/usr/include/stdio.h"
	.file	20 "/Users/bytedance" "Library/Android/sdk/ndk/21.4.7075529/toolchains/llvm/prebuilt/darwin-x86_64/sysroot/usr/include/c++/v1/cstdio"
	.file	21 "/Users/bytedance" "Library/Android/sdk/ndk/21.4.7075529/toolchains/llvm/prebuilt/darwin-x86_64/sysroot/usr/include/asm-generic/posix_types.h"
	.file	22 "/Users/bytedance" "Library/Android/sdk/ndk/21.4.7075529/toolchains/llvm/prebuilt/darwin-x86_64/sysroot/usr/include/sys/types.h"
	.file	23 "/Users/bytedance" "Library/Android/sdk/ndk/21.4.7075529/toolchains/llvm/prebuilt/darwin-x86_64/sysroot/usr/include/bits/fortify/stdio.h"
	.file	24 "/Users/bytedance" "Library/Android/sdk/ndk/21.4.7075529/toolchains/llvm/prebuilt/darwin-x86_64/lib64/clang/9.0.9/include/stdarg.h"
	.file	25 "/Users/bytedance" "Library/Android/sdk/ndk/21.4.7075529/toolchains/llvm/prebuilt/darwin-x86_64/sysroot/usr/include/ctype.h"
	.file	26 "/Users/bytedance" "Library/Android/sdk/ndk/21.4.7075529/toolchains/llvm/prebuilt/darwin-x86_64/sysroot/usr/include/c++/v1/cctype"
	.file	27 "/Users/bytedance" "Library/Android/sdk/ndk/21.4.7075529/toolchains/llvm/prebuilt/darwin-x86_64/sysroot/usr/include/bits/wctype.h"
	.file	28 "/Users/bytedance" "Library/Android/sdk/ndk/21.4.7075529/toolchains/llvm/prebuilt/darwin-x86_64/sysroot/usr/include/c++/v1/cwctype"
	.file	29 "/Users/bytedance" "Library/Android/sdk/ndk/21.4.7075529/toolchains/llvm/prebuilt/darwin-x86_64/sysroot/usr/local/include/wctype.h"
	.file	30 "/Users/bytedance" "Library/Android/sdk/ndk/21.4.7075529/toolchains/llvm/prebuilt/darwin-x86_64/sysroot/usr/include/bits/mbstate_t.h"
	.file	31 "/Users/bytedance" "Library/Android/sdk/ndk/21.4.7075529/toolchains/llvm/prebuilt/darwin-x86_64/sysroot/usr/include/c++/v1/cwchar"
	.file	32 "/Users/bytedance" "Library/Android/sdk/ndk/21.4.7075529/toolchains/llvm/prebuilt/darwin-x86_64/sysroot/usr/include/time.h"
	.file	33 "/Users/bytedance" "Library/Android/sdk/ndk/21.4.7075529/toolchains/llvm/prebuilt/darwin-x86_64/sysroot/usr/include/wchar.h"
	.file	34 "/Users/bytedance" "Library/Android/sdk/ndk/21.4.7075529/toolchains/llvm/prebuilt/darwin-x86_64/sysroot/usr/local/include/wchar.h"
	.file	35 "/Users/bytedance" "Library/Android/sdk/ndk/21.4.7075529/toolchains/llvm/prebuilt/darwin-x86_64/sysroot/usr/include/c++/v1/wchar.h"
	.section	.text._ZN10H264ParamsC2EPhi,"ax",%progbits
	.globl	_ZN10H264ParamsC2EPhi   @ -- Begin function _ZN10H264ParamsC2EPhi
	.p2align	1
	.type	_ZN10H264ParamsC2EPhi,%function
	.code	16                      @ @_ZN10H264ParamsC2EPhi
	.thumb_func
_ZN10H264ParamsC2EPhi:
.Lfunc_begin0:
	.file	36 "/Users/bytedance/code/my/LiveStream/AndroidPublisher/rtmplive" "src/main/cpp/H264Params.cpp"
	.loc	36 9 0                  @ src/main/cpp/H264Params.cpp:9:0
	.fnstart
	.cfi_sections .debug_frame
	.cfi_startproc
@ %bb.0:
	.save	{r7, lr}
	push	{r7, lr}
	.cfi_def_cfa_offset 8
	.cfi_offset lr, -4
	.cfi_offset r7, -8
	.setfp	r7, sp
	mov	r7, sp
	.cfi_def_cfa_register r7
	.pad	#40
	sub	sp, #40
	str	r0, [sp, #32]
	str	r1, [sp, #28]
	str	r2, [sp, #24]
	ldr	r0, [sp, #32]
	str	r0, [sp, #36]
.Ltmp0:
	.loc	36 10 45 prologue_end   @ src/main/cpp/H264Params.cpp:10:45
	ldr	r1, [sp, #28]
	.loc	36 10 51 is_stmt 0      @ src/main/cpp/H264Params.cpp:10:51
	ldr	r2, [sp, #24]
	.loc	36 10 17                @ src/main/cpp/H264Params.cpp:10:17
	str	r0, [sp, #4]            @ 4-byte Spill
	mov	r0, r1
	mov	r1, r2
	bl	_ZN10H264Parser15SearchStartCodeEPhi
	.loc	36 10 9                 @ src/main/cpp/H264Params.cpp:10:9
	str	r0, [sp, #20]
.Ltmp1:
	.loc	36 11 9 is_stmt 1       @ src/main/cpp/H264Params.cpp:11:9
	ldr	r0, [sp, #20]
.Ltmp2:
	.loc	36 11 9 is_stmt 0       @ src/main/cpp/H264Params.cpp:11:9
	cmp	r0, #0
	bmi	.LBB0_2
	b	.LBB0_1
.LBB0_1:
.Ltmp3:
	.loc	36 12 29 is_stmt 1      @ src/main/cpp/H264Params.cpp:12:29
	ldr	r0, [sp, #20]
	.loc	36 12 27 is_stmt 0      @ src/main/cpp/H264Params.cpp:12:27
	ldr	r1, [sp, #4]            @ 4-byte Reload
	str	r0, [r1, #4]
	.loc	36 13 22 is_stmt 1      @ src/main/cpp/H264Params.cpp:13:22
	ldr	r0, [sp, #28]
	.loc	36 13 20 is_stmt 0      @ src/main/cpp/H264Params.cpp:13:20
	str	r0, [r1]
	.loc	36 15 25 is_stmt 1      @ src/main/cpp/H264Params.cpp:15:25
	ldr	r0, [sp, #28]
	.loc	36 15 30 is_stmt 0      @ src/main/cpp/H264Params.cpp:15:30
	ldr	r2, [sp, #20]
	.loc	36 15 25                @ src/main/cpp/H264Params.cpp:15:25
	add	r0, r2
	.loc	36 15 14                @ src/main/cpp/H264Params.cpp:15:14
	str	r0, [sp, #16]
	.loc	36 16 31 is_stmt 1      @ src/main/cpp/H264Params.cpp:16:31
	ldr	r0, [sp, #24]
	.loc	36 16 40 is_stmt 0      @ src/main/cpp/H264Params.cpp:16:40
	ldr	r2, [sp, #20]
	.loc	36 16 38                @ src/main/cpp/H264Params.cpp:16:38
	subs	r0, r0, r2
	.loc	36 16 14                @ src/main/cpp/H264Params.cpp:16:14
	str	r0, [sp, #12]
	.loc	36 17 58 is_stmt 1      @ src/main/cpp/H264Params.cpp:17:58
	ldr	r0, [sp, #16]
	.loc	36 17 67 is_stmt 0      @ src/main/cpp/H264Params.cpp:17:67
	ldr	r1, [sp, #12]
	.loc	36 17 32                @ src/main/cpp/H264Params.cpp:17:32
	bl	_ZN10H264Parser13FindStartCodeEPhi
	.loc	36 17 14                @ src/main/cpp/H264Params.cpp:17:14
	str	r0, [sp, #8]
	.loc	36 19 23 is_stmt 1      @ src/main/cpp/H264Params.cpp:19:23
	ldr	r0, [sp, #16]
	.loc	36 19 31 is_stmt 0      @ src/main/cpp/H264Params.cpp:19:31
	ldr	r1, [sp, #8]
	.loc	36 19 23                @ src/main/cpp/H264Params.cpp:19:23
	add	r0, r1
	.loc	36 19 20                @ src/main/cpp/H264Params.cpp:19:20
	ldr	r1, [sp, #4]            @ 4-byte Reload
	str	r0, [r1, #8]
	.loc	36 20 29 is_stmt 1      @ src/main/cpp/H264Params.cpp:20:29
	ldr	r0, [sp, #12]
	.loc	36 20 46 is_stmt 0      @ src/main/cpp/H264Params.cpp:20:46
	ldr	r2, [sp, #8]
	.loc	36 20 44                @ src/main/cpp/H264Params.cpp:20:44
	subs	r0, r0, r2
	.loc	36 20 27                @ src/main/cpp/H264Params.cpp:20:27
	str	r0, [r1, #12]
	.loc	36 21 5 is_stmt 1       @ src/main/cpp/H264Params.cpp:21:5
	b	.LBB0_2
.Ltmp4:
.LBB0_2:
	.loc	36 22 1                 @ src/main/cpp/H264Params.cpp:22:1
	ldr	r0, [sp, #36]
	add	sp, #40
	pop	{r7, pc}
.Ltmp5:
.Lfunc_end0:
	.size	_ZN10H264ParamsC2EPhi, .Lfunc_end0-_ZN10H264ParamsC2EPhi
	.cfi_endproc
	.file	37 "/Users/bytedance/code/my/LiveStream/AndroidPublisher/rtmplive" "src/main/cpp/H264Params.h"
	.fnend
                                        @ -- End function
	.section	.text._ZN10H264Parser15SearchStartCodeEPhi,"axG",%progbits,_ZN10H264Parser15SearchStartCodeEPhi,comdat
	.weak	_ZN10H264Parser15SearchStartCodeEPhi @ -- Begin function _ZN10H264Parser15SearchStartCodeEPhi
	.p2align	1
	.type	_ZN10H264Parser15SearchStartCodeEPhi,%function
	.code	16                      @ @_ZN10H264Parser15SearchStartCodeEPhi
	.thumb_func
_ZN10H264Parser15SearchStartCodeEPhi:
.Lfunc_begin1:
	.file	38 "/Users/bytedance/code/my/LiveStream/AndroidPublisher/rtmplive" "src/main/cpp/H264Parser.h"
	.loc	38 98 0                 @ src/main/cpp/H264Parser.h:98:0
	.fnstart
	.cfi_startproc
@ %bb.0:
	.pad	#16
	sub	sp, #16
	.cfi_def_cfa_offset 16
	str	r0, [sp, #8]
	str	r1, [sp, #4]
	movs	r0, #0
.Ltmp6:
	.loc	38 99 18 prologue_end   @ src/main/cpp/H264Parser.h:99:18
	str	r0, [sp]
	.loc	38 99 14 is_stmt 0      @ src/main/cpp/H264Parser.h:99:14
	b	.LBB1_1
.LBB1_1:                                @ =>This Inner Loop Header: Depth=1
.Ltmp7:
	.loc	38 99 25                @ src/main/cpp/H264Parser.h:99:25
	ldr	r0, [sp]
	.loc	38 99 29                @ src/main/cpp/H264Parser.h:99:29
	ldr	r1, [sp, #4]
.Ltmp8:
	.loc	38 99 9                 @ src/main/cpp/H264Parser.h:99:9
	cmp	r0, r1
	bge	.LBB1_14
	b	.LBB1_2
.LBB1_2:                                @   in Loop: Header=BB1_1 Depth=1
.Ltmp9:
	.loc	38 101 18 is_stmt 1     @ src/main/cpp/H264Parser.h:101:18
	ldr	r0, [sp, #4]
	.loc	38 101 27 is_stmt 0     @ src/main/cpp/H264Parser.h:101:27
	ldr	r1, [sp]
	.loc	38 101 25               @ src/main/cpp/H264Parser.h:101:25
	subs	r0, r0, r1
	.loc	38 101 33               @ src/main/cpp/H264Parser.h:101:33
	cmp	r0, #5
	blt	.LBB1_7
	b	.LBB1_3
.LBB1_3:                                @   in Loop: Header=BB1_1 Depth=1
	.loc	38 101 37               @ src/main/cpp/H264Parser.h:101:37
	ldr	r0, [sp, #8]
	.loc	38 101 42               @ src/main/cpp/H264Parser.h:101:42
	ldr	r1, [sp]
	.loc	38 101 37               @ src/main/cpp/H264Parser.h:101:37
	ldrb	r0, [r0, r1]
	.loc	38 101 45               @ src/main/cpp/H264Parser.h:101:45
	cmp	r0, #0
	bne	.LBB1_7
	b	.LBB1_4
.LBB1_4:                                @   in Loop: Header=BB1_1 Depth=1
	.loc	38 101 49               @ src/main/cpp/H264Parser.h:101:49
	ldr	r0, [sp, #8]
	.loc	38 101 54               @ src/main/cpp/H264Parser.h:101:54
	ldr	r1, [sp]
	.loc	38 101 56               @ src/main/cpp/H264Parser.h:101:56
	add	r0, r1
	.loc	38 101 49               @ src/main/cpp/H264Parser.h:101:49
	ldrb	r0, [r0, #1]
	.loc	38 101 61               @ src/main/cpp/H264Parser.h:101:61
	cmp	r0, #0
	bne	.LBB1_7
	b	.LBB1_5
.LBB1_5:                                @   in Loop: Header=BB1_1 Depth=1
	.loc	38 101 65               @ src/main/cpp/H264Parser.h:101:65
	ldr	r0, [sp, #8]
	.loc	38 101 70               @ src/main/cpp/H264Parser.h:101:70
	ldr	r1, [sp]
	.loc	38 101 72               @ src/main/cpp/H264Parser.h:101:72
	add	r0, r1
	.loc	38 101 65               @ src/main/cpp/H264Parser.h:101:65
	ldrb	r0, [r0, #2]
	.loc	38 101 77               @ src/main/cpp/H264Parser.h:101:77
	cmp	r0, #0
	bne	.LBB1_7
	b	.LBB1_6
.LBB1_6:                                @   in Loop: Header=BB1_1 Depth=1
	.loc	38 101 80               @ src/main/cpp/H264Parser.h:101:80
	ldr	r0, [sp, #8]
	.loc	38 101 85               @ src/main/cpp/H264Parser.h:101:85
	ldr	r1, [sp]
	.loc	38 101 87               @ src/main/cpp/H264Parser.h:101:87
	add	r0, r1
	.loc	38 101 80               @ src/main/cpp/H264Parser.h:101:80
	ldrb	r0, [r0, #3]
	.loc	38 103 17 is_stmt 1     @ src/main/cpp/H264Parser.h:103:17
	cmp	r0, #1
	beq	.LBB1_11
	b	.LBB1_7
.LBB1_7:                                @   in Loop: Header=BB1_1 Depth=1
	.loc	38 103 21 is_stmt 0     @ src/main/cpp/H264Parser.h:103:21
	ldr	r0, [sp, #4]
	.loc	38 103 30               @ src/main/cpp/H264Parser.h:103:30
	ldr	r1, [sp]
	.loc	38 103 28               @ src/main/cpp/H264Parser.h:103:28
	subs	r0, r0, r1
	.loc	38 103 36               @ src/main/cpp/H264Parser.h:103:36
	cmp	r0, #4
	blt	.LBB1_12
	b	.LBB1_8
.LBB1_8:                                @   in Loop: Header=BB1_1 Depth=1
	.loc	38 103 40               @ src/main/cpp/H264Parser.h:103:40
	ldr	r0, [sp, #8]
	.loc	38 103 45               @ src/main/cpp/H264Parser.h:103:45
	ldr	r1, [sp]
	.loc	38 103 40               @ src/main/cpp/H264Parser.h:103:40
	ldrb	r0, [r0, r1]
	.loc	38 103 48               @ src/main/cpp/H264Parser.h:103:48
	cmp	r0, #0
	bne	.LBB1_12
	b	.LBB1_9
.LBB1_9:                                @   in Loop: Header=BB1_1 Depth=1
	.loc	38 103 52               @ src/main/cpp/H264Parser.h:103:52
	ldr	r0, [sp, #8]
	.loc	38 103 57               @ src/main/cpp/H264Parser.h:103:57
	ldr	r1, [sp]
	.loc	38 103 59               @ src/main/cpp/H264Parser.h:103:59
	add	r0, r1
	.loc	38 103 52               @ src/main/cpp/H264Parser.h:103:52
	ldrb	r0, [r0, #1]
	.loc	38 103 64               @ src/main/cpp/H264Parser.h:103:64
	cmp	r0, #0
	bne	.LBB1_12
	b	.LBB1_10
.LBB1_10:                               @   in Loop: Header=BB1_1 Depth=1
	.loc	38 103 67               @ src/main/cpp/H264Parser.h:103:67
	ldr	r0, [sp, #8]
	.loc	38 103 72               @ src/main/cpp/H264Parser.h:103:72
	ldr	r1, [sp]
	.loc	38 103 74               @ src/main/cpp/H264Parser.h:103:74
	add	r0, r1
	.loc	38 103 67               @ src/main/cpp/H264Parser.h:103:67
	ldrb	r0, [r0, #2]
.Ltmp10:
	.loc	38 101 17 is_stmt 1     @ src/main/cpp/H264Parser.h:101:17
	cmp	r0, #1
	bne	.LBB1_12
	b	.LBB1_11
.LBB1_11:
.Ltmp11:
	.loc	38 104 24               @ src/main/cpp/H264Parser.h:104:24
	ldr	r0, [sp]
	.loc	38 104 17 is_stmt 0     @ src/main/cpp/H264Parser.h:104:17
	str	r0, [sp, #12]
	b	.LBB1_15
.Ltmp12:
.LBB1_12:                               @   in Loop: Header=BB1_1 Depth=1
	.loc	38 106 9 is_stmt 1      @ src/main/cpp/H264Parser.h:106:9
	b	.LBB1_13
.Ltmp13:
.LBB1_13:                               @   in Loop: Header=BB1_1 Depth=1
	.loc	38 99 38                @ src/main/cpp/H264Parser.h:99:38
	ldr	r0, [sp]
	adds	r0, #1
	str	r0, [sp]
	.loc	38 99 9 is_stmt 0       @ src/main/cpp/H264Parser.h:99:9
	b	.LBB1_1
.Ltmp14:
.LBB1_14:
	.loc	38 0 9                  @ src/main/cpp/H264Parser.h:0:9
	mov.w	r0, #-1
	.loc	38 107 9 is_stmt 1      @ src/main/cpp/H264Parser.h:107:9
	str	r0, [sp, #12]
	b	.LBB1_15
.LBB1_15:
	.loc	38 108 5                @ src/main/cpp/H264Parser.h:108:5
	ldr	r0, [sp, #12]
	add	sp, #16
	bx	lr
.Ltmp15:
.Lfunc_end1:
	.size	_ZN10H264Parser15SearchStartCodeEPhi, .Lfunc_end1-_ZN10H264Parser15SearchStartCodeEPhi
	.cfi_endproc
	.fnend
                                        @ -- End function
	.section	.text._ZN10H264Parser13FindStartCodeEPhi,"axG",%progbits,_ZN10H264Parser13FindStartCodeEPhi,comdat
	.weak	_ZN10H264Parser13FindStartCodeEPhi @ -- Begin function _ZN10H264Parser13FindStartCodeEPhi
	.p2align	1
	.type	_ZN10H264Parser13FindStartCodeEPhi,%function
	.code	16                      @ @_ZN10H264Parser13FindStartCodeEPhi
	.thumb_func
_ZN10H264Parser13FindStartCodeEPhi:
.Lfunc_begin2:
	.loc	38 80 0                 @ src/main/cpp/H264Parser.h:80:0
	.fnstart
	.cfi_startproc
@ %bb.0:
	.pad	#12
	sub	sp, #12
	.cfi_def_cfa_offset 12
	str	r0, [sp, #4]
	str	r1, [sp]
.Ltmp16:
	.loc	38 81 13 prologue_end   @ src/main/cpp/H264Parser.h:81:13
	ldr	r0, [sp]
.Ltmp17:
	.loc	38 81 13 is_stmt 0      @ src/main/cpp/H264Parser.h:81:13
	cmp	r0, #4
	blt	.LBB2_12
	b	.LBB2_1
.LBB2_1:
.Ltmp18:
	.loc	38 82 18 is_stmt 1      @ src/main/cpp/H264Parser.h:82:18
	ldr	r0, [sp, #4]
	ldrb	r0, [r0]
	.loc	38 82 26 is_stmt 0      @ src/main/cpp/H264Parser.h:82:26
	cmp	r0, #0
	bne	.LBB2_5
	b	.LBB2_2
.LBB2_2:
	.loc	38 82 30                @ src/main/cpp/H264Parser.h:82:30
	ldr	r0, [sp, #4]
	ldrb	r0, [r0, #1]
	.loc	38 82 38                @ src/main/cpp/H264Parser.h:82:38
	cmp	r0, #0
	bne	.LBB2_5
	b	.LBB2_3
.LBB2_3:
	.loc	38 82 41                @ src/main/cpp/H264Parser.h:82:41
	ldr	r0, [sp, #4]
	ldrb	r0, [r0, #2]
.Ltmp19:
	.loc	38 82 17                @ src/main/cpp/H264Parser.h:82:17
	cmp	r0, #1
	bne	.LBB2_5
	b	.LBB2_4
.LBB2_4:
	.loc	38 0 17                 @ src/main/cpp/H264Parser.h:0:17
	movs	r0, #3
.Ltmp20:
	.loc	38 84 17 is_stmt 1      @ src/main/cpp/H264Parser.h:84:17
	str	r0, [sp, #8]
	b	.LBB2_20
.Ltmp21:
.LBB2_5:
	.loc	38 85 25                @ src/main/cpp/H264Parser.h:85:25
	ldr	r0, [sp, #4]
	ldrb	r0, [r0]
	.loc	38 85 33 is_stmt 0      @ src/main/cpp/H264Parser.h:85:33
	cmp	r0, #0
	bne	.LBB2_10
	b	.LBB2_6
.LBB2_6:
	.loc	38 85 37                @ src/main/cpp/H264Parser.h:85:37
	ldr	r0, [sp, #4]
	ldrb	r0, [r0, #1]
	.loc	38 85 45                @ src/main/cpp/H264Parser.h:85:45
	cmp	r0, #0
	bne	.LBB2_10
	b	.LBB2_7
.LBB2_7:
	.loc	38 85 49                @ src/main/cpp/H264Parser.h:85:49
	ldr	r0, [sp, #4]
	ldrb	r0, [r0, #2]
	.loc	38 85 57                @ src/main/cpp/H264Parser.h:85:57
	cmp	r0, #0
	bne	.LBB2_10
	b	.LBB2_8
.LBB2_8:
	.loc	38 85 60                @ src/main/cpp/H264Parser.h:85:60
	ldr	r0, [sp, #4]
	ldrb	r0, [r0, #3]
.Ltmp22:
	.loc	38 85 24                @ src/main/cpp/H264Parser.h:85:24
	cmp	r0, #1
	bne	.LBB2_10
	b	.LBB2_9
.LBB2_9:
	.loc	38 0 24                 @ src/main/cpp/H264Parser.h:0:24
	movs	r0, #4
.Ltmp23:
	.loc	38 87 17 is_stmt 1      @ src/main/cpp/H264Parser.h:87:17
	str	r0, [sp, #8]
	b	.LBB2_20
.Ltmp24:
.LBB2_10:
	.loc	38 0 17 is_stmt 0       @ src/main/cpp/H264Parser.h:0:17
	b	.LBB2_11
.LBB2_11:
	.loc	38 89 9 is_stmt 1       @ src/main/cpp/H264Parser.h:89:9
	b	.LBB2_19
.Ltmp25:
.LBB2_12:
	.loc	38 89 20 is_stmt 0      @ src/main/cpp/H264Parser.h:89:20
	ldr	r0, [sp]
.Ltmp26:
	.loc	38 89 20                @ src/main/cpp/H264Parser.h:89:20
	cmp	r0, #3
	blt	.LBB2_18
	b	.LBB2_13
.LBB2_13:
.Ltmp27:
	.loc	38 91 18 is_stmt 1      @ src/main/cpp/H264Parser.h:91:18
	ldr	r0, [sp, #4]
	ldrb	r0, [r0]
	.loc	38 91 26 is_stmt 0      @ src/main/cpp/H264Parser.h:91:26
	cmp	r0, #0
	bne	.LBB2_17
	b	.LBB2_14
.LBB2_14:
	.loc	38 91 30                @ src/main/cpp/H264Parser.h:91:30
	ldr	r0, [sp, #4]
	ldrb	r0, [r0, #1]
	.loc	38 91 38                @ src/main/cpp/H264Parser.h:91:38
	cmp	r0, #0
	bne	.LBB2_17
	b	.LBB2_15
.LBB2_15:
	.loc	38 91 41                @ src/main/cpp/H264Parser.h:91:41
	ldr	r0, [sp, #4]
	ldrb	r0, [r0, #2]
.Ltmp28:
	.loc	38 91 17                @ src/main/cpp/H264Parser.h:91:17
	cmp	r0, #1
	bne	.LBB2_17
	b	.LBB2_16
.LBB2_16:
	.loc	38 0 17                 @ src/main/cpp/H264Parser.h:0:17
	movs	r0, #3
.Ltmp29:
	.loc	38 92 17 is_stmt 1      @ src/main/cpp/H264Parser.h:92:17
	str	r0, [sp, #8]
	b	.LBB2_20
.Ltmp30:
.LBB2_17:
	.loc	38 94 9                 @ src/main/cpp/H264Parser.h:94:9
	b	.LBB2_18
.Ltmp31:
.LBB2_18:
	.loc	38 0 9 is_stmt 0        @ src/main/cpp/H264Parser.h:0:9
	b	.LBB2_19
.LBB2_19:
	movs	r0, #0
	.loc	38 95 9 is_stmt 1       @ src/main/cpp/H264Parser.h:95:9
	str	r0, [sp, #8]
	b	.LBB2_20
.LBB2_20:
	.loc	38 96 5                 @ src/main/cpp/H264Parser.h:96:5
	ldr	r0, [sp, #8]
	add	sp, #12
	bx	lr
.Ltmp32:
.Lfunc_end2:
	.size	_ZN10H264Parser13FindStartCodeEPhi, .Lfunc_end2-_ZN10H264Parser13FindStartCodeEPhi
	.cfi_endproc
	.fnend
                                        @ -- End function
	.section	.text._ZN10H264ParamsD2Ev,"ax",%progbits
	.globl	_ZN10H264ParamsD2Ev     @ -- Begin function _ZN10H264ParamsD2Ev
	.p2align	1
	.type	_ZN10H264ParamsD2Ev,%function
	.code	16                      @ @_ZN10H264ParamsD2Ev
	.thumb_func
_ZN10H264ParamsD2Ev:
.Lfunc_begin3:
	.loc	36 24 0                 @ src/main/cpp/H264Params.cpp:24:0
	.fnstart
	.cfi_startproc
@ %bb.0:
	.pad	#4
	sub	sp, #4
	.cfi_def_cfa_offset 4
	str	r0, [sp]
	ldr	r0, [sp]
.Ltmp33:
	.loc	36 24 27 prologue_end   @ src/main/cpp/H264Params.cpp:24:27
	add	sp, #4
	bx	lr
.Ltmp34:
.Lfunc_end3:
	.size	_ZN10H264ParamsD2Ev, .Lfunc_end3-_ZN10H264ParamsD2Ev
	.cfi_endproc
	.fnend
                                        @ -- End function
	.section	".note.GNU-stack","",%progbits