	.text
	.syntax unified
	.eabi_attribute	67, "2.09"	@ Tag_conformance
	.eabi_attribute	6, 10	@ Tag_CPU_arch
	.eabi_attribute	7, 65	@ Tag_CPU_arch_profile
	.eabi_attribute	8, 1	@ Tag_ARM_ISA_use
	.eabi_attribute	9, 2	@ Tag_THUMB_ISA_use
	.fpu	neon
	.eabi_attribute	34, 1	@ Tag_CPU_unaligned_access
	.eabi_attribute	15, 1	@ Tag_ABI_PCS_RW_data
	.eabi_attribute	16, 1	@ Tag_ABI_PCS_RO_data
	.eabi_attribute	17, 2	@ Tag_ABI_PCS_GOT_use
	.eabi_attribute	20, 1	@ Tag_ABI_FP_denormal
	.eabi_attribute	21, 1	@ Tag_ABI_FP_exceptions
	.eabi_attribute	23, 3	@ Tag_ABI_FP_number_model
	.eabi_attribute	24, 1	@ Tag_ABI_align_needed
	.eabi_attribute	25, 1	@ Tag_ABI_align_preserved
	.eabi_attribute	38, 1	@ Tag_ABI_FP_16bit_format
	.eabi_attribute	18, 4	@ Tag_ABI_PCS_wchar_t
	.eabi_attribute	26, 2	@ Tag_ABI_enum_size
	.eabi_attribute	14, 0	@ Tag_ABI_PCS_R9_use
	.file	"RtmpClient.cpp"
	.file	1 "/Users/bytedance/code/my/LiveStream/AndroidPublisher/rtmplive" "src/main/cpp/librtmp/amf.h"
	.file	2 "/Users/bytedance" "Library/Android/sdk/ndk/21.4.7075529/toolchains/llvm/prebuilt/darwin-x86_64/sysroot/usr/include/c++/v1/ios"
	.file	3 "/Users/bytedance" "Library/Android/sdk/ndk/21.4.7075529/toolchains/llvm/prebuilt/darwin-x86_64/lib64/clang/9.0.9/include/stddef.h"
	.file	4 "/Users/bytedance" "Library/Android/sdk/ndk/21.4.7075529/toolchains/llvm/prebuilt/darwin-x86_64/sysroot/usr/include/c++/v1/__locale"
	.file	5 "/Users/bytedance" "Library/Android/sdk/ndk/21.4.7075529/toolchains/llvm/prebuilt/darwin-x86_64/sysroot/usr/include/c++/v1/string"
	.file	6 "/Users/bytedance" "Library/Android/sdk/ndk/21.4.7075529/toolchains/llvm/prebuilt/darwin-x86_64/sysroot/usr/include/c++/v1/memory"
	.file	7 "/Users/bytedance" "Library/Android/sdk/ndk/21.4.7075529/toolchains/llvm/prebuilt/darwin-x86_64/sysroot/usr/include/c++/v1/type_traits"
	.file	8 "/Users/bytedance" "Library/Android/sdk/ndk/21.4.7075529/toolchains/llvm/prebuilt/darwin-x86_64/sysroot/usr/include/c++/v1/initializer_list"
	.file	9 "/Users/bytedance" "Library/Android/sdk/ndk/21.4.7075529/toolchains/llvm/prebuilt/darwin-x86_64/sysroot/usr/include/c++/v1/string_view"
	.file	10 "/Users/bytedance" "Library/Android/sdk/ndk/21.4.7075529/toolchains/llvm/prebuilt/darwin-x86_64/sysroot/usr/include/c++/v1/__string"
	.file	11 "/Users/bytedance" "Library/Android/sdk/ndk/21.4.7075529/toolchains/llvm/prebuilt/darwin-x86_64/sysroot/usr/include/c++/v1/iterator"
	.file	12 "/Users/bytedance" "Library/Android/sdk/ndk/21.4.7075529/toolchains/llvm/prebuilt/darwin-x86_64/sysroot/usr/include/c++/v1/iosfwd"
	.file	13 "/Users/bytedance" "Library/Android/sdk/ndk/21.4.7075529/toolchains/llvm/prebuilt/darwin-x86_64/sysroot/usr/include/c++/v1/mutex"
	.file	14 "/Users/bytedance" "Library/Android/sdk/ndk/21.4.7075529/toolchains/llvm/prebuilt/darwin-x86_64/sysroot/usr/include/stdint.h"
	.file	15 "/Users/bytedance" "Library/Android/sdk/ndk/21.4.7075529/toolchains/llvm/prebuilt/darwin-x86_64/sysroot/usr/include/android/log.h"
	.file	16 "/Users/bytedance/code/my/LiveStream/AndroidPublisher/rtmplive" "src/main/cpp/librtmp/log.h"
	.file	17 "/Users/bytedance/code/my/LiveStream/AndroidPublisher/rtmplive" "src/main/cpp/OnMetaData.h"
	.file	18 "/Users/bytedance/code/my/LiveStream/AndroidPublisher/rtmplive" "src/main/cpp/H264Parser.h"
	.file	19 "/Users/bytedance/code/my/LiveStream/AndroidPublisher/rtmplive" "src/main/cpp/librtmp/rtmp.h"
	.file	20 "/Users/bytedance" "Library/Android/sdk/ndk/21.4.7075529/toolchains/llvm/prebuilt/darwin-x86_64/sysroot/usr/include/c++/v1/streambuf"
	.file	21 "/Users/bytedance" "Library/Android/sdk/ndk/21.4.7075529/toolchains/llvm/prebuilt/darwin-x86_64/sysroot/usr/include/bits/mbstate_t.h"
	.file	22 "/Users/bytedance" "Library/Android/sdk/ndk/21.4.7075529/toolchains/llvm/prebuilt/darwin-x86_64/sysroot/usr/include/c++/v1/fstream"
	.file	23 "/Users/bytedance" "Library/Android/sdk/ndk/21.4.7075529/toolchains/llvm/prebuilt/darwin-x86_64/sysroot/usr/include/bits/struct_file.h"
	.file	24 "/Users/bytedance" "Library/Android/sdk/ndk/21.4.7075529/toolchains/llvm/prebuilt/darwin-x86_64/sysroot/usr/include/stdio.h"
	.file	25 "/Users/bytedance" "Library/Android/sdk/ndk/21.4.7075529/toolchains/llvm/prebuilt/darwin-x86_64/sysroot/usr/include/c++/v1/exception"
	.file	26 "/Users/bytedance" "Library/Android/sdk/ndk/21.4.7075529/toolchains/llvm/prebuilt/darwin-x86_64/sysroot/usr/include/c++/v1/stdexcept"
	.file	27 "/Users/bytedance/code/my/LiveStream/AndroidPublisher/rtmplive" "src/main/cpp/FLVTag.h"
	.file	28 "/Users/bytedance/code/my/LiveStream/AndroidPublisher/rtmplive" "src/main/cpp/IFLVTagData.h"
	.file	29 "/Users/bytedance" "Library/Android/sdk/ndk/21.4.7075529/toolchains/llvm/prebuilt/darwin-x86_64/sysroot/usr/include/c++/v1/cstddef"
	.file	30 "/Users/bytedance" "Library/Android/sdk/ndk/21.4.7075529/toolchains/llvm/prebuilt/darwin-x86_64/lib64/clang/9.0.9/include/__stddef_max_align_t.h"
	.file	31 "/Users/bytedance" "Library/Android/sdk/ndk/21.4.7075529/toolchains/llvm/prebuilt/darwin-x86_64/sysroot/usr/include/c++/v1/__nullptr"
	.file	32 "/Users/bytedance" "Library/Android/sdk/ndk/21.4.7075529/toolchains/llvm/prebuilt/darwin-x86_64/sysroot/usr/include/c++/v1/stddef.h"
	.file	33 "/Users/bytedance" "Library/Android/sdk/ndk/21.4.7075529/toolchains/llvm/prebuilt/darwin-x86_64/sysroot/usr/include/c++/v1/cstring"
	.file	34 "/Users/bytedance" "Library/Android/sdk/ndk/21.4.7075529/toolchains/llvm/prebuilt/darwin-x86_64/sysroot/usr/include/string.h"
	.file	35 "/Users/bytedance" "Library/Android/sdk/ndk/21.4.7075529/toolchains/llvm/prebuilt/darwin-x86_64/sysroot/usr/include/bits/fortify/string.h"
	.file	36 "/Users/bytedance" "Library/Android/sdk/ndk/21.4.7075529/toolchains/llvm/prebuilt/darwin-x86_64/sysroot/usr/include/c++/v1/string.h"
	.file	37 "/Users/bytedance" "Library/Android/sdk/ndk/21.4.7075529/toolchains/llvm/prebuilt/darwin-x86_64/sysroot/usr/include/c++/v1/cstdint"
	.file	38 "/Users/bytedance" "Library/Android/sdk/ndk/21.4.7075529/toolchains/llvm/prebuilt/darwin-x86_64/sysroot/usr/include/c++/v1/cstdlib"
	.file	39 "/Users/bytedance" "Library/Android/sdk/ndk/21.4.7075529/toolchains/llvm/prebuilt/darwin-x86_64/sysroot/usr/include/stdlib.h"
	.file	40 "/Users/bytedance" "Library/Android/sdk/ndk/21.4.7075529/toolchains/llvm/prebuilt/darwin-x86_64/sysroot/usr/include/android/legacy_stdlib_inlines.h"
	.file	41 "/Users/bytedance" "Library/Android/sdk/ndk/21.4.7075529/toolchains/llvm/prebuilt/darwin-x86_64/sysroot/usr/include/malloc.h"
	.file	42 "/Users/bytedance" "Library/Android/sdk/ndk/21.4.7075529/toolchains/llvm/prebuilt/darwin-x86_64/sysroot/usr/include/c++/v1/math.h"
	.file	43 "/Users/bytedance" "Library/Android/sdk/ndk/21.4.7075529/toolchains/llvm/prebuilt/darwin-x86_64/sysroot/usr/local/include/stdlib.h"
	.file	44 "/Users/bytedance" "Library/Android/sdk/ndk/21.4.7075529/toolchains/llvm/prebuilt/darwin-x86_64/sysroot/usr/include/c++/v1/cstdio"
	.file	45 "/Users/bytedance" "Library/Android/sdk/ndk/21.4.7075529/toolchains/llvm/prebuilt/darwin-x86_64/sysroot/usr/include/asm-generic/posix_types.h"
	.file	46 "/Users/bytedance" "Library/Android/sdk/ndk/21.4.7075529/toolchains/llvm/prebuilt/darwin-x86_64/sysroot/usr/include/sys/types.h"
	.file	47 "/Users/bytedance" "Library/Android/sdk/ndk/21.4.7075529/toolchains/llvm/prebuilt/darwin-x86_64/sysroot/usr/include/bits/fortify/stdio.h"
	.file	48 "/Users/bytedance" "Library/Android/sdk/ndk/21.4.7075529/toolchains/llvm/prebuilt/darwin-x86_64/lib64/clang/9.0.9/include/stdarg.h"
	.file	49 "/Users/bytedance" "Library/Android/sdk/ndk/21.4.7075529/toolchains/llvm/prebuilt/darwin-x86_64/sysroot/usr/include/ctype.h"
	.file	50 "/Users/bytedance" "Library/Android/sdk/ndk/21.4.7075529/toolchains/llvm/prebuilt/darwin-x86_64/sysroot/usr/include/c++/v1/cctype"
	.file	51 "/Users/bytedance" "Library/Android/sdk/ndk/21.4.7075529/toolchains/llvm/prebuilt/darwin-x86_64/sysroot/usr/include/bits/wctype.h"
	.file	52 "/Users/bytedance" "Library/Android/sdk/ndk/21.4.7075529/toolchains/llvm/prebuilt/darwin-x86_64/sysroot/usr/include/c++/v1/cwctype"
	.file	53 "/Users/bytedance" "Library/Android/sdk/ndk/21.4.7075529/toolchains/llvm/prebuilt/darwin-x86_64/sysroot/usr/local/include/wctype.h"
	.file	54 "/Users/bytedance" "Library/Android/sdk/ndk/21.4.7075529/toolchains/llvm/prebuilt/darwin-x86_64/sysroot/usr/include/c++/v1/cwchar"
	.file	55 "/Users/bytedance" "Library/Android/sdk/ndk/21.4.7075529/toolchains/llvm/prebuilt/darwin-x86_64/sysroot/usr/include/time.h"
	.file	56 "/Users/bytedance" "Library/Android/sdk/ndk/21.4.7075529/toolchains/llvm/prebuilt/darwin-x86_64/sysroot/usr/include/wchar.h"
	.file	57 "/Users/bytedance" "Library/Android/sdk/ndk/21.4.7075529/toolchains/llvm/prebuilt/darwin-x86_64/sysroot/usr/local/include/wchar.h"
	.file	58 "/Users/bytedance" "Library/Android/sdk/ndk/21.4.7075529/toolchains/llvm/prebuilt/darwin-x86_64/sysroot/usr/include/c++/v1/wchar.h"
	.file	59 "/Users/bytedance" "Library/Android/sdk/ndk/21.4.7075529/toolchains/llvm/prebuilt/darwin-x86_64/sysroot/usr/include/c++/v1/ctime"
	.file	60 "/Users/bytedance" "Library/Android/sdk/ndk/21.4.7075529/toolchains/llvm/prebuilt/darwin-x86_64/sysroot/usr/include/c++/v1/chrono"
	.file	61 "/Users/bytedance" "Library/Android/sdk/ndk/21.4.7075529/toolchains/llvm/prebuilt/darwin-x86_64/sysroot/usr/include/c++/v1/cstdarg"
	.section	.text._ZN10RtmpClientC2ENSt6__ndk112basic_stringIcNS0_11char_traitsIcEENS0_9allocatorIcEEEEibS6_bS6_,"ax",%progbits
	.globl	_ZN10RtmpClientC2ENSt6__ndk112basic_stringIcNS0_11char_traitsIcEENS0_9allocatorIcEEEEibS6_bS6_ @ -- Begin function _ZN10RtmpClientC2ENSt6__ndk112basic_stringIcNS0_11char_traitsIcEENS0_9allocatorIcEEEEibS6_bS6_
	.p2align	2
	.type	_ZN10RtmpClientC2ENSt6__ndk112basic_stringIcNS0_11char_traitsIcEENS0_9allocatorIcEEEEibS6_bS6_,%function
	.code	16                      @ @_ZN10RtmpClientC2ENSt6__ndk112basic_stringIcNS0_11char_traitsIcEENS0_9allocatorIcEEEEibS6_bS6_
	.thumb_func
_ZN10RtmpClientC2ENSt6__ndk112basic_stringIcNS0_11char_traitsIcEENS0_9allocatorIcEEEEibS6_bS6_:
.Lfunc_begin0:
	.file	62 "/Users/bytedance/code/my/LiveStream/AndroidPublisher/rtmplive" "src/main/cpp/RtmpClient.cpp"
	.loc	62 32 0                 @ src/main/cpp/RtmpClient.cpp:32:0
	.fnstart
	.cfi_sections .debug_frame
	.cfi_startproc
@ %bb.0:
	@DEBUG_VALUE: RtmpClient:url <- [$r1+0]
	@DEBUG_VALUE: RtmpClient:url <- [$r1+0]
	.save	{r4, r5, r7, lr}
	push	{r4, r5, r7, lr}
	.cfi_def_cfa_offset 16
	.cfi_offset lr, -4
	.cfi_offset r7, -8
	.cfi_offset r5, -12
	.cfi_offset r4, -16
	.setfp	r7, sp, #8
	add	r7, sp, #8
	.cfi_def_cfa r7, 8
	.pad	#128
	sub	sp, #128
.Ltmp13:
	@DEBUG_VALUE: RtmpClient:dump_video_path <- [DW_OP_plus_uconst 8] [$r7+0]
	@DEBUG_VALUE: RtmpClient:dump_audio_path <- [DW_OP_plus_uconst 16] [$r7+0]
	ldr.w	r12, [r7, #16]
	ldr.w	lr, [r7, #12]
	ldr	r4, [r7, #8]
	mov	r5, r3
	str	r0, [sp, #120]
	str	r2, [sp, #116]
	strb	r3, [r7, #-21]
	strb	lr, [r7, #-22]
	ldr	r0, [sp, #120]
	str	r0, [sp, #124]
.Ltmp14:
	.loc	62 27 11 prologue_end   @ src/main/cpp/RtmpClient.cpp:27:11
	adds	r2, r0, #4
	mov	r3, r2
	.loc	62 27 16 is_stmt 0      @ src/main/cpp/RtmpClient.cpp:27:16
	str	r0, [sp, #100]          @ 4-byte Spill
	mov	r0, r1
.Ltmp15:
	@DEBUG_VALUE: RtmpClient:url <- [$r0+0]
	str.w	r12, [sp, #96]          @ 4-byte Spill
	str	r4, [sp, #92]           @ 4-byte Spill
	str	r5, [sp, #88]           @ 4-byte Spill
	str	r2, [sp, #84]           @ 4-byte Spill
	str	r3, [sp, #80]           @ 4-byte Spill
	bl	_ZNSt6__ndk14moveIRNS_12basic_stringIcNS_11char_traitsIcEENS_9allocatorIcEEEEEEONS_16remove_referenceIT_E4typeEOS9_
.Ltmp16:
	.loc	62 27 11                @ src/main/cpp/RtmpClient.cpp:27:11
	ldr	r1, [sp, #84]           @ 4-byte Reload
	str	r0, [sp, #76]           @ 4-byte Spill
	mov	r0, r1
	ldr	r1, [sp, #76]           @ 4-byte Reload
	bl	_ZNSt6__ndk112basic_stringIcNS_11char_traitsIcEENS_9allocatorIcEEEC2EOS5_
	.loc	62 28 21 is_stmt 1      @ src/main/cpp/RtmpClient.cpp:28:21
	ldr	r0, [sp, #116]
	.loc	62 28 11 is_stmt 0      @ src/main/cpp/RtmpClient.cpp:28:11
	ldr	r1, [sp, #100]          @ 4-byte Reload
	str	r0, [r1, #16]
	.loc	62 29 30 is_stmt 1      @ src/main/cpp/RtmpClient.cpp:29:30
	ldrb	r0, [r7, #-21]
	.loc	62 29 11 is_stmt 0      @ src/main/cpp/RtmpClient.cpp:29:11
	and	r0, r0, #1
	strb	r0, [r1, #20]
	.loc	62 30 11 is_stmt 1      @ src/main/cpp/RtmpClient.cpp:30:11
	add.w	r0, r1, #24
	mov	r2, r0
	.loc	62 30 28 is_stmt 0      @ src/main/cpp/RtmpClient.cpp:30:28
	ldr	r3, [sp, #92]           @ 4-byte Reload
	str	r0, [sp, #72]           @ 4-byte Spill
	mov	r0, r3
	str	r2, [sp, #68]           @ 4-byte Spill
	bl	_ZNSt6__ndk14moveIRNS_12basic_stringIcNS_11char_traitsIcEENS_9allocatorIcEEEEEEONS_16remove_referenceIT_E4typeEOS9_
	.loc	62 30 11                @ src/main/cpp/RtmpClient.cpp:30:11
	ldr	r1, [sp, #72]           @ 4-byte Reload
	str	r0, [sp, #64]           @ 4-byte Spill
	mov	r0, r1
	ldr	r1, [sp, #64]           @ 4-byte Reload
	bl	_ZNSt6__ndk112basic_stringIcNS_11char_traitsIcEENS_9allocatorIcEEEC2EOS5_
	.loc	62 23 13 is_stmt 1      @ src/main/cpp/RtmpClient.cpp:23:13
	ldr	r0, [sp, #100]          @ 4-byte Reload
	add.w	r1, r0, #36
	mov	r2, r1
.Ltmp0:
	mov	r0, r1
	str	r2, [sp, #60]           @ 4-byte Spill
	bl	_ZNSt6__ndk114basic_ofstreamIcNS_11char_traitsIcEEEC1Ev
.Ltmp1:
	b	.LBB0_1
.Ltmp17:
.LBB0_1:
	@DEBUG_VALUE: RtmpClient:dump_audio_path <- [DW_OP_plus_uconst 16] [$r7+0]
	@DEBUG_VALUE: RtmpClient:dump_video_path <- [DW_OP_plus_uconst 8] [$r7+0]
	.loc	62 31 30                @ src/main/cpp/RtmpClient.cpp:31:30
	ldrb	r0, [r7, #-22]
	.loc	62 31 11 is_stmt 0      @ src/main/cpp/RtmpClient.cpp:31:11
	and	r0, r0, #1
	ldr	r1, [sp, #100]          @ 4-byte Reload
	strb.w	r0, [r1, #212]
	.loc	62 32 11 is_stmt 1      @ src/main/cpp/RtmpClient.cpp:32:11
	add.w	r0, r1, #216
	mov	r2, r0
	.loc	62 32 28 is_stmt 0      @ src/main/cpp/RtmpClient.cpp:32:28
	ldr	r3, [sp, #96]           @ 4-byte Reload
	str	r0, [sp, #56]           @ 4-byte Spill
	mov	r0, r3
	str	r2, [sp, #52]           @ 4-byte Spill
	bl	_ZNSt6__ndk14moveIRNS_12basic_stringIcNS_11char_traitsIcEENS_9allocatorIcEEEEEEONS_16remove_referenceIT_E4typeEOS9_
	.loc	62 32 11                @ src/main/cpp/RtmpClient.cpp:32:11
	ldr	r1, [sp, #56]           @ 4-byte Reload
	str	r0, [sp, #48]           @ 4-byte Spill
	mov	r0, r1
	ldr	r1, [sp, #48]           @ 4-byte Reload
	bl	_ZNSt6__ndk112basic_stringIcNS_11char_traitsIcEENS_9allocatorIcEEEC2EOS5_
	.loc	62 23 13 is_stmt 1      @ src/main/cpp/RtmpClient.cpp:23:13
	ldr	r0, [sp, #100]          @ 4-byte Reload
	add.w	r1, r0, #228
	mov	r2, r1
.Ltmp3:
	mov	r0, r1
	str	r2, [sp, #44]           @ 4-byte Spill
	bl	_ZNSt6__ndk114basic_ofstreamIcNS_11char_traitsIcEEEC1Ev
.Ltmp4:
	b	.LBB0_2
.Ltmp18:
.LBB0_2:
	@DEBUG_VALUE: RtmpClient:dump_audio_path <- [DW_OP_plus_uconst 16] [$r7+0]
	@DEBUG_VALUE: RtmpClient:dump_video_path <- [DW_OP_plus_uconst 8] [$r7+0]
	.loc	62 34 9                 @ src/main/cpp/RtmpClient.cpp:34:9
	ldr	r0, [sp, #100]          @ 4-byte Reload
	ldrb	r1, [r0, #20]
.Ltmp19:
	.loc	62 34 9 is_stmt 0       @ src/main/cpp/RtmpClient.cpp:34:9
	lsls	r1, r1, #31
	cmp	r1, #0
	beq	.LBB0_8
	b	.LBB0_3
.Ltmp20:
.LBB0_3:
	@DEBUG_VALUE: RtmpClient:dump_audio_path <- [DW_OP_plus_uconst 16] [$r7+0]
	@DEBUG_VALUE: RtmpClient:dump_video_path <- [DW_OP_plus_uconst 8] [$r7+0]
	.loc	62 35 9 is_stmt 1       @ src/main/cpp/RtmpClient.cpp:35:9
	ldr	r0, [sp, #100]          @ 4-byte Reload
	adds	r0, #36
	.loc	62 35 33 is_stmt 0      @ src/main/cpp/RtmpClient.cpp:35:33
	ldr	r1, [sp, #100]          @ 4-byte Reload
	add.w	r2, r1, #24
	.loc	62 35 50                @ src/main/cpp/RtmpClient.cpp:35:50
	str	r0, [sp, #40]           @ 4-byte Spill
	mov	r0, r2
	bl	_ZNKSt6__ndk112basic_stringIcNS_11char_traitsIcEENS_9allocatorIcEEE5c_strEv
.Ltmp6:
	movs	r2, #16
	.loc	62 35 28                @ src/main/cpp/RtmpClient.cpp:35:28
	ldr	r1, [sp, #40]           @ 4-byte Reload
	str	r0, [sp, #36]           @ 4-byte Spill
	mov	r0, r1
	ldr	r1, [sp, #36]           @ 4-byte Reload
	bl	_ZNSt6__ndk114basic_ofstreamIcNS_11char_traitsIcEEE4openEPKcj
.Ltmp7:
	b	.LBB0_4
.Ltmp21:
.LBB0_4:
	@DEBUG_VALUE: RtmpClient:dump_audio_path <- [DW_OP_plus_uconst 16] [$r7+0]
	@DEBUG_VALUE: RtmpClient:dump_video_path <- [DW_OP_plus_uconst 8] [$r7+0]
	.loc	62 36 5 is_stmt 1       @ src/main/cpp/RtmpClient.cpp:36:5
	b	.LBB0_8
.Ltmp22:
.LBB0_5:
	@DEBUG_VALUE: RtmpClient:dump_audio_path <- [DW_OP_plus_uconst 16] [$r7+0]
	@DEBUG_VALUE: RtmpClient:dump_video_path <- [DW_OP_plus_uconst 8] [$r7+0]
.Ltmp2:
	.loc	62 47 1                 @ src/main/cpp/RtmpClient.cpp:47:1
	str	r0, [sp, #108]
	str	r1, [sp, #104]
	b	.LBB0_14
.Ltmp23:
.LBB0_6:
	@DEBUG_VALUE: RtmpClient:dump_audio_path <- [DW_OP_plus_uconst 16] [$r7+0]
	@DEBUG_VALUE: RtmpClient:dump_video_path <- [DW_OP_plus_uconst 8] [$r7+0]
.Ltmp5:
	str	r0, [sp, #108]
	str	r1, [sp, #104]
	b	.LBB0_13
.Ltmp24:
.LBB0_7:
	@DEBUG_VALUE: RtmpClient:dump_audio_path <- [DW_OP_plus_uconst 16] [$r7+0]
	@DEBUG_VALUE: RtmpClient:dump_video_path <- [DW_OP_plus_uconst 8] [$r7+0]
.Ltmp12:
	.loc	62 47 1 is_stmt 0       @ src/main/cpp/RtmpClient.cpp:47:1
	str	r0, [sp, #108]
	str	r1, [sp, #104]
.Ltmp25:
	.loc	62 47 1                 @ src/main/cpp/RtmpClient.cpp:47:1
	ldr	r0, [sp, #44]           @ 4-byte Reload
	bl	_ZNSt6__ndk114basic_ofstreamIcNS_11char_traitsIcEEED1Ev
	b	.LBB0_13
.Ltmp26:
.LBB0_8:
	@DEBUG_VALUE: RtmpClient:dump_audio_path <- [DW_OP_plus_uconst 16] [$r7+0]
	@DEBUG_VALUE: RtmpClient:dump_video_path <- [DW_OP_plus_uconst 8] [$r7+0]
	.loc	62 37 9 is_stmt 1       @ src/main/cpp/RtmpClient.cpp:37:9
	ldr	r0, [sp, #100]          @ 4-byte Reload
	ldrb.w	r1, [r0, #212]
.Ltmp27:
	.loc	62 37 9 is_stmt 0       @ src/main/cpp/RtmpClient.cpp:37:9
	lsls	r1, r1, #31
	cmp	r1, #0
	beq	.LBB0_11
	b	.LBB0_9
.Ltmp28:
.LBB0_9:
	@DEBUG_VALUE: RtmpClient:dump_audio_path <- [DW_OP_plus_uconst 16] [$r7+0]
	@DEBUG_VALUE: RtmpClient:dump_video_path <- [DW_OP_plus_uconst 8] [$r7+0]
	.loc	62 38 9 is_stmt 1       @ src/main/cpp/RtmpClient.cpp:38:9
	ldr	r0, [sp, #100]          @ 4-byte Reload
	adds	r0, #228
	.loc	62 38 33 is_stmt 0      @ src/main/cpp/RtmpClient.cpp:38:33
	ldr	r1, [sp, #100]          @ 4-byte Reload
	add.w	r2, r1, #216
	.loc	62 38 50                @ src/main/cpp/RtmpClient.cpp:38:50
	str	r0, [sp, #32]           @ 4-byte Spill
	mov	r0, r2
	bl	_ZNKSt6__ndk112basic_stringIcNS_11char_traitsIcEENS_9allocatorIcEEE5c_strEv
.Ltmp8:
	movs	r2, #16
	.loc	62 38 28                @ src/main/cpp/RtmpClient.cpp:38:28
	ldr	r1, [sp, #32]           @ 4-byte Reload
	str	r0, [sp, #28]           @ 4-byte Spill
	mov	r0, r1
	ldr	r1, [sp, #28]           @ 4-byte Reload
	bl	_ZNSt6__ndk114basic_ofstreamIcNS_11char_traitsIcEEE4openEPKcj
.Ltmp9:
	b	.LBB0_10
.Ltmp29:
.LBB0_10:
	@DEBUG_VALUE: RtmpClient:dump_audio_path <- [DW_OP_plus_uconst 16] [$r7+0]
	@DEBUG_VALUE: RtmpClient:dump_video_path <- [DW_OP_plus_uconst 8] [$r7+0]
	.loc	62 39 5 is_stmt 1       @ src/main/cpp/RtmpClient.cpp:39:5
	b	.LBB0_11
.Ltmp30:
.LBB0_11:
	@DEBUG_VALUE: RtmpClient:dump_audio_path <- [DW_OP_plus_uconst 16] [$r7+0]
	@DEBUG_VALUE: RtmpClient:dump_video_path <- [DW_OP_plus_uconst 8] [$r7+0]
	.loc	62 41 141               @ src/main/cpp/RtmpClient.cpp:41:141
	ldr	r0, [sp, #100]          @ 4-byte Reload
	adds	r0, #4
	.loc	62 41 146 is_stmt 0     @ src/main/cpp/RtmpClient.cpp:41:146
	bl	_ZNKSt6__ndk112basic_stringIcNS_11char_traitsIcEENS_9allocatorIcEEE5c_strEv
	.loc	62 41 155               @ src/main/cpp/RtmpClient.cpp:41:155
	ldr	r1, [sp, #100]          @ 4-byte Reload
	ldr	r2, [r1, #16]
	.loc	62 41 166               @ src/main/cpp/RtmpClient.cpp:41:166
	ldrb	r3, [r1, #20]
	and	r3, r3, #1
	.loc	62 41 186               @ src/main/cpp/RtmpClient.cpp:41:186
	add.w	r12, r1, #24
	.loc	62 41 203               @ src/main/cpp/RtmpClient.cpp:41:203
	str	r0, [sp, #24]           @ 4-byte Spill
	mov	r0, r12
	str	r2, [sp, #20]           @ 4-byte Spill
	str	r3, [sp, #16]           @ 4-byte Spill
	bl	_ZNKSt6__ndk112basic_stringIcNS_11char_traitsIcEENS_9allocatorIcEEE5c_strEv
.Ltmp10:
	.loc	62 41 5                 @ src/main/cpp/RtmpClient.cpp:41:5
	mov	r1, sp
	str	r0, [r1, #8]
	ldr	r0, [sp, #16]           @ 4-byte Reload
	str	r0, [r1, #4]
	ldr	r0, [sp, #20]           @ 4-byte Reload
	str	r0, [r1]
	ldr	r1, .LCPI0_0
.LPC0_0:
	add	r1, pc
	ldr	r2, .LCPI0_1
.LPC0_1:
	add	r2, pc
	movs	r0, #3
	ldr	r3, [sp, #24]           @ 4-byte Reload
	bl	__android_log_print
.Ltmp11:
	b	.LBB0_12
.Ltmp31:
.LBB0_12:
	@DEBUG_VALUE: RtmpClient:dump_audio_path <- [DW_OP_plus_uconst 16] [$r7+0]
	@DEBUG_VALUE: RtmpClient:dump_video_path <- [DW_OP_plus_uconst 8] [$r7+0]
	.loc	62 47 1 is_stmt 1       @ src/main/cpp/RtmpClient.cpp:47:1
	ldr	r0, [sp, #124]
	add	sp, #128
	pop	{r4, r5, r7, pc}
.Ltmp32:
.LBB0_13:
	@DEBUG_VALUE: RtmpClient:dump_audio_path <- [DW_OP_plus_uconst 16] [$r7+0]
	@DEBUG_VALUE: RtmpClient:dump_video_path <- [DW_OP_plus_uconst 8] [$r7+0]
	.loc	62 47 1 is_stmt 0       @ src/main/cpp/RtmpClient.cpp:47:1
	ldr	r0, [sp, #52]           @ 4-byte Reload
	bl	_ZNSt6__ndk112basic_stringIcNS_11char_traitsIcEENS_9allocatorIcEEED2Ev
	ldr	r0, [sp, #60]           @ 4-byte Reload
	bl	_ZNSt6__ndk114basic_ofstreamIcNS_11char_traitsIcEEED1Ev
	b	.LBB0_14
.Ltmp33:
.LBB0_14:
	@DEBUG_VALUE: RtmpClient:dump_audio_path <- [DW_OP_plus_uconst 16] [$r7+0]
	@DEBUG_VALUE: RtmpClient:dump_video_path <- [DW_OP_plus_uconst 8] [$r7+0]
	ldr	r0, [sp, #68]           @ 4-byte Reload
	bl	_ZNSt6__ndk112basic_stringIcNS_11char_traitsIcEENS_9allocatorIcEEED2Ev
	ldr	r0, [sp, #80]           @ 4-byte Reload
	bl	_ZNSt6__ndk112basic_stringIcNS_11char_traitsIcEENS_9allocatorIcEEED2Ev
	b	.LBB0_15
.Ltmp34:
.LBB0_15:
	@DEBUG_VALUE: RtmpClient:dump_audio_path <- [DW_OP_plus_uconst 16] [$r7+0]
	@DEBUG_VALUE: RtmpClient:dump_video_path <- [DW_OP_plus_uconst 8] [$r7+0]
	ldr	r0, [sp, #108]
	bl	_Unwind_Resume
.Ltmp35:
	.p2align	2
@ %bb.16:
	.loc	62 0 1                  @ src/main/cpp/RtmpClient.cpp:0:1
.LCPI0_0:
	.long	.L.str-(.LPC0_0+4)
.LCPI0_1:
	.long	.L.str.1-(.LPC0_1+4)
.Lfunc_end0:
	.size	_ZN10RtmpClientC2ENSt6__ndk112basic_stringIcNS0_11char_traitsIcEENS0_9allocatorIcEEEEibS6_bS6_, .Lfunc_end0-_ZN10RtmpClientC2ENSt6__ndk112basic_stringIcNS0_11char_traitsIcEENS0_9allocatorIcEEEEibS6_bS6_
	.cfi_endproc
	.file	63 "/Users/bytedance/code/my/LiveStream/AndroidPublisher/rtmplive" "src/main/cpp/RtmpClient.h"
	.file	64 "/Users/bytedance" "Library/Android/sdk/ndk/21.4.7075529/toolchains/llvm/prebuilt/darwin-x86_64/sysroot/usr/include/c++/v1/ostream"
	.globl	__gxx_personality_v0
	.personality __gxx_personality_v0
	.handlerdata
	.p2align	2
GCC_except_table0:
.Lexception0:
	.byte	255                     @ @LPStart Encoding = omit
	.byte	255                     @ @TType Encoding = omit
	.byte	1                       @ Call site Encoding = uleb128
	.uleb128 .Lcst_end0-.Lcst_begin0
.Lcst_begin0:
	.uleb128 .Ltmp0-.Lfunc_begin0   @ >> Call Site 1 <<
	.uleb128 .Ltmp1-.Ltmp0          @   Call between .Ltmp0 and .Ltmp1
	.uleb128 .Ltmp2-.Lfunc_begin0   @     jumps to .Ltmp2
	.byte	0                       @   On action: cleanup
	.uleb128 .Ltmp3-.Lfunc_begin0   @ >> Call Site 2 <<
	.uleb128 .Ltmp4-.Ltmp3          @   Call between .Ltmp3 and .Ltmp4
	.uleb128 .Ltmp5-.Lfunc_begin0   @     jumps to .Ltmp5
	.byte	0                       @   On action: cleanup
	.uleb128 .Ltmp6-.Lfunc_begin0   @ >> Call Site 3 <<
	.uleb128 .Ltmp11-.Ltmp6         @   Call between .Ltmp6 and .Ltmp11
	.uleb128 .Ltmp12-.Lfunc_begin0  @     jumps to .Ltmp12
	.byte	0                       @   On action: cleanup
	.uleb128 .Ltmp11-.Lfunc_begin0  @ >> Call Site 4 <<
	.uleb128 .Lfunc_end0-.Ltmp11    @   Call between .Ltmp11 and .Lfunc_end0
	.byte	0                       @     has no landing pad
	.byte	0                       @   On action: cleanup
.Lcst_end0:
	.p2align	2
	.fnend
                                        @ -- End function
	.section	.text._ZNSt6__ndk14moveIRNS_12basic_stringIcNS_11char_traitsIcEENS_9allocatorIcEEEEEEONS_16remove_referenceIT_E4typeEOS9_,"axG",%progbits,_ZNSt6__ndk14moveIRNS_12basic_stringIcNS_11char_traitsIcEENS_9allocatorIcEEEEEEONS_16remove_referenceIT_E4typeEOS9_,comdat
	.hidden	_ZNSt6__ndk14moveIRNS_12basic_stringIcNS_11char_traitsIcEENS_9allocatorIcEEEEEEONS_16remove_referenceIT_E4typeEOS9_ @ -- Begin function _ZNSt6__ndk14moveIRNS_12basic_stringIcNS_11char_traitsIcEENS_9allocatorIcEEEEEEONS_16remove_referenceIT_E4typeEOS9_
	.weak	_ZNSt6__ndk14moveIRNS_12basic_stringIcNS_11char_traitsIcEENS_9allocatorIcEEEEEEONS_16remove_referenceIT_E4typeEOS9_
	.p2align	1
	.type	_ZNSt6__ndk14moveIRNS_12basic_stringIcNS_11char_traitsIcEENS_9allocatorIcEEEEEEONS_16remove_referenceIT_E4typeEOS9_,%function
	.code	16                      @ @_ZNSt6__ndk14moveIRNS_12basic_stringIcNS_11char_traitsIcEENS_9allocatorIcEEEEEEONS_16remove_referenceIT_E4typeEOS9_
	.thumb_func
_ZNSt6__ndk14moveIRNS_12basic_stringIcNS_11char_traitsIcEENS_9allocatorIcEEEEEEONS_16remove_referenceIT_E4typeEOS9_:
.Lfunc_begin1:
	.loc	7 2245 0 is_stmt 1      @ Library/Android/sdk/ndk/21.4.7075529/toolchains/llvm/prebuilt/darwin-x86_64/sysroot/usr/include/c++/v1/type_traits:2245:0
	.fnstart
	.cfi_startproc
@ %bb.0:
	.pad	#4
	sub	sp, #4
	.cfi_def_cfa_offset 4
	str	r0, [sp]
.Ltmp36:
	.loc	7 2247 31 prologue_end  @ Library/Android/sdk/ndk/21.4.7075529/toolchains/llvm/prebuilt/darwin-x86_64/sysroot/usr/include/c++/v1/type_traits:2247:31
	ldr	r0, [sp]
	.loc	7 2247 5 is_stmt 0      @ Library/Android/sdk/ndk/21.4.7075529/toolchains/llvm/prebuilt/darwin-x86_64/sysroot/usr/include/c++/v1/type_traits:2247:5
	add	sp, #4
	bx	lr
.Ltmp37:
.Lfunc_end1:
	.size	_ZNSt6__ndk14moveIRNS_12basic_stringIcNS_11char_traitsIcEENS_9allocatorIcEEEEEEONS_16remove_referenceIT_E4typeEOS9_, .Lfunc_end1-_ZNSt6__ndk14moveIRNS_12basic_stringIcNS_11char_traitsIcEENS_9allocatorIcEEEEEEONS_16remove_referenceIT_E4typeEOS9_
	.cfi_endproc
	.fnend
                                        @ -- End function
	.section	.text._ZNSt6__ndk112basic_stringIcNS_11char_traitsIcEENS_9allocatorIcEEEC2EOS5_,"axG",%progbits,_ZNSt6__ndk112basic_stringIcNS_11char_traitsIcEENS_9allocatorIcEEEC2EOS5_,comdat
	.hidden	_ZNSt6__ndk112basic_stringIcNS_11char_traitsIcEENS_9allocatorIcEEEC2EOS5_ @ -- Begin function _ZNSt6__ndk112basic_stringIcNS_11char_traitsIcEENS_9allocatorIcEEEC2EOS5_
	.weak	_ZNSt6__ndk112basic_stringIcNS_11char_traitsIcEENS_9allocatorIcEEEC2EOS5_
	.p2align	1
	.type	_ZNSt6__ndk112basic_stringIcNS_11char_traitsIcEENS_9allocatorIcEEEC2EOS5_,%function
	.code	16                      @ @_ZNSt6__ndk112basic_stringIcNS_11char_traitsIcEENS_9allocatorIcEEEC2EOS5_
	.thumb_func
_ZNSt6__ndk112basic_stringIcNS_11char_traitsIcEENS_9allocatorIcEEEC2EOS5_:
.Lfunc_begin2:
	.loc	5 1869 0 is_stmt 1      @ Library/Android/sdk/ndk/21.4.7075529/toolchains/llvm/prebuilt/darwin-x86_64/sysroot/usr/include/c++/v1/string:1869:0
	.fnstart
	.cfi_startproc
@ %bb.0:
	.save	{r7, lr}
	push	{r7, lr}
	.cfi_def_cfa_offset 8
	.cfi_offset lr, -4
	.cfi_offset r7, -8
	.setfp	r7, sp
	mov	r7, sp
	.cfi_def_cfa_register r7
	.pad	#16
	sub	sp, #16
	str	r0, [sp, #12]
	str	r1, [sp, #8]
	ldr	r0, [sp, #12]
.Ltmp38:
	.loc	5 1868 30 prologue_end  @ Library/Android/sdk/ndk/21.4.7075529/toolchains/llvm/prebuilt/darwin-x86_64/sysroot/usr/include/c++/v1/string:1868:30
	ldr	r1, [sp, #8]
	.loc	5 1868 12 is_stmt 0     @ Library/Android/sdk/ndk/21.4.7075529/toolchains/llvm/prebuilt/darwin-x86_64/sysroot/usr/include/c++/v1/string:1868:12
	str	r0, [sp, #4]            @ 4-byte Spill
	mov	r0, r1
	bl	_ZNSt6__ndk14moveIRNS_17__compressed_pairINS_12basic_stringIcNS_11char_traitsIcEENS_9allocatorIcEEE5__repES6_EEEEONS_16remove_referenceIT_E4typeEOSC_
	.loc	5 1868 7                @ Library/Android/sdk/ndk/21.4.7075529/toolchains/llvm/prebuilt/darwin-x86_64/sysroot/usr/include/c++/v1/string:1868:7
	ldr	r1, [r0, #8]
	ldr	r2, [sp, #4]            @ 4-byte Reload
	str	r1, [r2, #8]
	vldr	d16, [r0]
	vstr	d16, [r2]
.Ltmp39:
	.loc	5 1870 5 is_stmt 1      @ Library/Android/sdk/ndk/21.4.7075529/toolchains/llvm/prebuilt/darwin-x86_64/sysroot/usr/include/c++/v1/string:1870:5
	ldr	r0, [sp, #8]
	.loc	5 1870 11 is_stmt 0     @ Library/Android/sdk/ndk/21.4.7075529/toolchains/llvm/prebuilt/darwin-x86_64/sysroot/usr/include/c++/v1/string:1870:11
	bl	_ZNSt6__ndk112basic_stringIcNS_11char_traitsIcEENS_9allocatorIcEEE6__zeroEv
.Ltmp40:
	.loc	5 1876 1 is_stmt 1      @ Library/Android/sdk/ndk/21.4.7075529/toolchains/llvm/prebuilt/darwin-x86_64/sysroot/usr/include/c++/v1/string:1876:1
	ldr	r0, [sp, #4]            @ 4-byte Reload
	add	sp, #16
	pop	{r7, pc}
.Ltmp41:
.Lfunc_end2:
	.size	_ZNSt6__ndk112basic_stringIcNS_11char_traitsIcEENS_9allocatorIcEEEC2EOS5_, .Lfunc_end2-_ZNSt6__ndk112basic_stringIcNS_11char_traitsIcEENS_9allocatorIcEEEC2EOS5_
	.cfi_endproc
	.fnend
                                        @ -- End function
	.section	.text._ZNSt6__ndk114basic_ofstreamIcNS_11char_traitsIcEEEC1Ev,"axG",%progbits,_ZNSt6__ndk114basic_ofstreamIcNS_11char_traitsIcEEEC1Ev,comdat
	.hidden	_ZNSt6__ndk114basic_ofstreamIcNS_11char_traitsIcEEEC1Ev @ -- Begin function _ZNSt6__ndk114basic_ofstreamIcNS_11char_traitsIcEEEC1Ev
	.weak	_ZNSt6__ndk114basic_ofstreamIcNS_11char_traitsIcEEEC1Ev
	.p2align	2
	.type	_ZNSt6__ndk114basic_ofstreamIcNS_11char_traitsIcEEEC1Ev,%function
	.code	16                      @ @_ZNSt6__ndk114basic_ofstreamIcNS_11char_traitsIcEEEC1Ev
	.thumb_func
_ZNSt6__ndk114basic_ofstreamIcNS_11char_traitsIcEEEC1Ev:
.Lfunc_begin3:
	.loc	22 1413 0               @ Library/Android/sdk/ndk/21.4.7075529/toolchains/llvm/prebuilt/darwin-x86_64/sysroot/usr/include/c++/v1/fstream:1413:0
	.fnstart
	.cfi_startproc
@ %bb.0:
	.save	{r7, lr}
	push	{r7, lr}
	.cfi_def_cfa_offset 8
	.cfi_offset lr, -4
	.cfi_offset r7, -8
	.setfp	r7, sp
	mov	r7, sp
	.cfi_def_cfa_register r7
	.pad	#16
	sub	sp, #16
	str	r0, [sp, #12]
	ldr	r0, [sp, #12]
.Ltmp48:
	.loc	22 1413 1 prologue_end  @ Library/Android/sdk/ndk/21.4.7075529/toolchains/llvm/prebuilt/darwin-x86_64/sysroot/usr/include/c++/v1/fstream:1413:1
	add.w	r1, r0, #96
	.loc	22 1356 5               @ Library/Android/sdk/ndk/21.4.7075529/toolchains/llvm/prebuilt/darwin-x86_64/sysroot/usr/include/c++/v1/fstream:1356:5
	str	r0, [sp]                @ 4-byte Spill
	mov	r0, r1
	bl	_ZNSt6__ndk19basic_iosIcNS_11char_traitsIcEEEC2Ev
	.loc	22 1413 1               @ Library/Android/sdk/ndk/21.4.7075529/toolchains/llvm/prebuilt/darwin-x86_64/sysroot/usr/include/c++/v1/fstream:1413:1
	ldr	r0, .LCPI3_0
.LPC3_0:
	add	r0, pc
	ldr	r0, [r0]
	add.w	r1, r0, #12
	ldr	r2, [sp]                @ 4-byte Reload
	str	r1, [r2], #4
	adds	r0, #32
	ldr	r1, [sp]                @ 4-byte Reload
	str	r0, [r1, #96]
.Ltmp42:
	.loc	22 1412 7               @ Library/Android/sdk/ndk/21.4.7075529/toolchains/llvm/prebuilt/darwin-x86_64/sysroot/usr/include/c++/v1/fstream:1412:7
	ldr	r0, .LCPI3_1
.LPC3_1:
	add	r0, pc
	ldr	r0, [r0]
	adds	r1, r0, #4
	ldr	r0, [sp]                @ 4-byte Reload
	bl	_ZNSt6__ndk113basic_ostreamIcNS_11char_traitsIcEEEC2EPNS_15basic_streambufIcS2_EE
.Ltmp43:
	b	.LBB3_1
.LBB3_1:
	.loc	22 1413 1               @ Library/Android/sdk/ndk/21.4.7075529/toolchains/llvm/prebuilt/darwin-x86_64/sysroot/usr/include/c++/v1/fstream:1413:1
	ldr	r0, .LCPI3_2
.LPC3_2:
	add	r0, pc
	ldr	r0, [r0]
	add.w	r1, r0, #12
	ldr	r2, [sp]                @ 4-byte Reload
	str	r1, [r2]
	adds	r0, #32
	str	r0, [r2, #96]
	.loc	22 1356 5               @ Library/Android/sdk/ndk/21.4.7075529/toolchains/llvm/prebuilt/darwin-x86_64/sysroot/usr/include/c++/v1/fstream:1356:5
	adds	r0, r2, #4
.Ltmp45:
	bl	_ZNSt6__ndk113basic_filebufIcNS_11char_traitsIcEEEC2Ev
.Ltmp46:
	b	.LBB3_2
.LBB3_2:
	.loc	22 1414 1               @ Library/Android/sdk/ndk/21.4.7075529/toolchains/llvm/prebuilt/darwin-x86_64/sysroot/usr/include/c++/v1/fstream:1414:1
	ldr	r0, [sp]                @ 4-byte Reload
	add	sp, #16
	pop	{r7, pc}
.LBB3_3:
.Ltmp44:
	str	r0, [sp, #8]
	str	r1, [sp, #4]
	b	.LBB3_5
.LBB3_4:
.Ltmp47:
	str	r0, [sp, #8]
	str	r1, [sp, #4]
.Ltmp49:
	.loc	22 1414 1 is_stmt 0     @ Library/Android/sdk/ndk/21.4.7075529/toolchains/llvm/prebuilt/darwin-x86_64/sysroot/usr/include/c++/v1/fstream:1414:1
	ldr	r0, .LCPI3_3
.LPC3_3:
	add	r0, pc
	ldr	r0, [r0]
	adds	r1, r0, #4
	ldr	r0, [sp]                @ 4-byte Reload
	bl	_ZNSt6__ndk113basic_ostreamIcNS_11char_traitsIcEEED2Ev
	b	.LBB3_5
.LBB3_5:
	ldr	r0, [sp]                @ 4-byte Reload
	adds	r0, #96
	bl	_ZNSt6__ndk19basic_iosIcNS_11char_traitsIcEEED2Ev
	b	.LBB3_6
.LBB3_6:
	ldr	r0, [sp, #8]
	bl	_Unwind_Resume
.Ltmp50:
	.p2align	2
@ %bb.7:
	.loc	22 0 1                  @ Library/Android/sdk/ndk/21.4.7075529/toolchains/llvm/prebuilt/darwin-x86_64/sysroot/usr/include/c++/v1/fstream:0:1
.LCPI3_0:
.Ltmp51:
	.long	_ZTVNSt6__ndk114basic_ofstreamIcNS_11char_traitsIcEEEE(GOT_PREL)-((.LPC3_0+4)-.Ltmp51)
.LCPI3_1:
.Ltmp52:
	.long	_ZTTNSt6__ndk114basic_ofstreamIcNS_11char_traitsIcEEEE(GOT_PREL)-((.LPC3_1+4)-.Ltmp52)
.LCPI3_2:
.Ltmp53:
	.long	_ZTVNSt6__ndk114basic_ofstreamIcNS_11char_traitsIcEEEE(GOT_PREL)-((.LPC3_2+4)-.Ltmp53)
.LCPI3_3:
.Ltmp54:
	.long	_ZTTNSt6__ndk114basic_ofstreamIcNS_11char_traitsIcEEEE(GOT_PREL)-((.LPC3_3+4)-.Ltmp54)
.Lfunc_end3:
	.size	_ZNSt6__ndk114basic_ofstreamIcNS_11char_traitsIcEEEC1Ev, .Lfunc_end3-_ZNSt6__ndk114basic_ofstreamIcNS_11char_traitsIcEEEC1Ev
	.cfi_endproc
	.globl	__gxx_personality_v0
	.personality __gxx_personality_v0
	.handlerdata
	.p2align	2
GCC_except_table3:
.Lexception1:
	.byte	255                     @ @LPStart Encoding = omit
	.byte	255                     @ @TType Encoding = omit
	.byte	1                       @ Call site Encoding = uleb128
	.uleb128 .Lcst_end1-.Lcst_begin1
.Lcst_begin1:
	.uleb128 .Lfunc_begin3-.Lfunc_begin3 @ >> Call Site 1 <<
	.uleb128 .Ltmp42-.Lfunc_begin3  @   Call between .Lfunc_begin3 and .Ltmp42
	.byte	0                       @     has no landing pad
	.byte	0                       @   On action: cleanup
	.uleb128 .Ltmp42-.Lfunc_begin3  @ >> Call Site 2 <<
	.uleb128 .Ltmp43-.Ltmp42        @   Call between .Ltmp42 and .Ltmp43
	.uleb128 .Ltmp44-.Lfunc_begin3  @     jumps to .Ltmp44
	.byte	0                       @   On action: cleanup
	.uleb128 .Ltmp45-.Lfunc_begin3  @ >> Call Site 3 <<
	.uleb128 .Ltmp46-.Ltmp45        @   Call between .Ltmp45 and .Ltmp46
	.uleb128 .Ltmp47-.Lfunc_begin3  @     jumps to .Ltmp47
	.byte	0                       @   On action: cleanup
	.uleb128 .Ltmp46-.Lfunc_begin3  @ >> Call Site 4 <<
	.uleb128 .Lfunc_end3-.Ltmp46    @   Call between .Ltmp46 and .Lfunc_end3
	.byte	0                       @     has no landing pad
	.byte	0                       @   On action: cleanup
.Lcst_end1:
	.p2align	2
	.fnend
                                        @ -- End function
	.section	.text._ZNSt6__ndk114basic_ofstreamIcNS_11char_traitsIcEEE4openEPKcj,"axG",%progbits,_ZNSt6__ndk114basic_ofstreamIcNS_11char_traitsIcEEE4openEPKcj,comdat
	.weak	_ZNSt6__ndk114basic_ofstreamIcNS_11char_traitsIcEEE4openEPKcj @ -- Begin function _ZNSt6__ndk114basic_ofstreamIcNS_11char_traitsIcEEE4openEPKcj
	.p2align	1
	.type	_ZNSt6__ndk114basic_ofstreamIcNS_11char_traitsIcEEE4openEPKcj,%function
	.code	16                      @ @_ZNSt6__ndk114basic_ofstreamIcNS_11char_traitsIcEEE4openEPKcj
	.thumb_func
_ZNSt6__ndk114basic_ofstreamIcNS_11char_traitsIcEEE4openEPKcj:
.Lfunc_begin4:
	.loc	22 1507 0 is_stmt 1     @ Library/Android/sdk/ndk/21.4.7075529/toolchains/llvm/prebuilt/darwin-x86_64/sysroot/usr/include/c++/v1/fstream:1507:0
	.fnstart
	.cfi_startproc
@ %bb.0:
	.save	{r7, lr}
	push	{r7, lr}
	.cfi_def_cfa_offset 8
	.cfi_offset lr, -4
	.cfi_offset r7, -8
	.setfp	r7, sp
	mov	r7, sp
	.cfi_def_cfa_register r7
	.pad	#16
	sub	sp, #16
	str	r0, [sp, #12]
	str	r1, [sp, #8]
	str	r2, [sp, #4]
	ldr	r0, [sp, #12]
.Ltmp55:
	.loc	22 1508 9 prologue_end  @ Library/Android/sdk/ndk/21.4.7075529/toolchains/llvm/prebuilt/darwin-x86_64/sysroot/usr/include/c++/v1/fstream:1508:9
	adds	r1, r0, #4
	.loc	22 1508 20 is_stmt 0    @ Library/Android/sdk/ndk/21.4.7075529/toolchains/llvm/prebuilt/darwin-x86_64/sysroot/usr/include/c++/v1/fstream:1508:20
	ldr	r2, [sp, #8]
	.loc	22 1508 25              @ Library/Android/sdk/ndk/21.4.7075529/toolchains/llvm/prebuilt/darwin-x86_64/sysroot/usr/include/c++/v1/fstream:1508:25
	ldr	r3, [sp, #4]
	.loc	22 1508 32              @ Library/Android/sdk/ndk/21.4.7075529/toolchains/llvm/prebuilt/darwin-x86_64/sysroot/usr/include/c++/v1/fstream:1508:32
	orr	r3, r3, #16
	.loc	22 1508 15              @ Library/Android/sdk/ndk/21.4.7075529/toolchains/llvm/prebuilt/darwin-x86_64/sysroot/usr/include/c++/v1/fstream:1508:15
	str	r0, [sp]                @ 4-byte Spill
	mov	r0, r1
	mov	r1, r2
	mov	r2, r3
	bl	_ZNSt6__ndk113basic_filebufIcNS_11char_traitsIcEEE4openEPKcj
.Ltmp56:
	.loc	22 1508 9               @ Library/Android/sdk/ndk/21.4.7075529/toolchains/llvm/prebuilt/darwin-x86_64/sysroot/usr/include/c++/v1/fstream:1508:9
	cmp	r0, #0
	beq	.LBB4_2
	b	.LBB4_1
.LBB4_1:
.Ltmp57:
	.loc	22 1509 15 is_stmt 1    @ Library/Android/sdk/ndk/21.4.7075529/toolchains/llvm/prebuilt/darwin-x86_64/sysroot/usr/include/c++/v1/fstream:1509:15
	ldr	r0, [sp]                @ 4-byte Reload
	ldr	r1, [r0]
	ldr	r1, [r1, #-12]
	add	r0, r1
	movs	r1, #0
	bl	_ZNSt6__ndk19basic_iosIcNS_11char_traitsIcEEE5clearEj
	.loc	22 1509 9 is_stmt 0     @ Library/Android/sdk/ndk/21.4.7075529/toolchains/llvm/prebuilt/darwin-x86_64/sysroot/usr/include/c++/v1/fstream:1509:9
	b	.LBB4_3
.LBB4_2:
	.loc	22 1511 15 is_stmt 1    @ Library/Android/sdk/ndk/21.4.7075529/toolchains/llvm/prebuilt/darwin-x86_64/sysroot/usr/include/c++/v1/fstream:1511:15
	ldr	r0, [sp]                @ 4-byte Reload
	ldr	r1, [r0]
	ldr	r1, [r1, #-12]
	add	r0, r1
	movs	r1, #4
	bl	_ZNSt6__ndk19basic_iosIcNS_11char_traitsIcEEE8setstateEj
	b	.LBB4_3
.Ltmp58:
.LBB4_3:
	.loc	22 1512 1               @ Library/Android/sdk/ndk/21.4.7075529/toolchains/llvm/prebuilt/darwin-x86_64/sysroot/usr/include/c++/v1/fstream:1512:1
	add	sp, #16
	pop	{r7, pc}
.Ltmp59:
.Lfunc_end4:
	.size	_ZNSt6__ndk114basic_ofstreamIcNS_11char_traitsIcEEE4openEPKcj, .Lfunc_end4-_ZNSt6__ndk114basic_ofstreamIcNS_11char_traitsIcEEE4openEPKcj
	.cfi_endproc
	.fnend
                                        @ -- End function
	.section	.text._ZNKSt6__ndk112basic_stringIcNS_11char_traitsIcEENS_9allocatorIcEEE5c_strEv,"axG",%progbits,_ZNKSt6__ndk112basic_stringIcNS_11char_traitsIcEENS_9allocatorIcEEE5c_strEv,comdat
	.hidden	_ZNKSt6__ndk112basic_stringIcNS_11char_traitsIcEENS_9allocatorIcEEE5c_strEv @ -- Begin function _ZNKSt6__ndk112basic_stringIcNS_11char_traitsIcEENS_9allocatorIcEEE5c_strEv
	.weak	_ZNKSt6__ndk112basic_stringIcNS_11char_traitsIcEENS_9allocatorIcEEE5c_strEv
	.p2align	1
	.type	_ZNKSt6__ndk112basic_stringIcNS_11char_traitsIcEENS_9allocatorIcEEE5c_strEv,%function
	.code	16                      @ @_ZNKSt6__ndk112basic_stringIcNS_11char_traitsIcEENS_9allocatorIcEEE5c_strEv
	.thumb_func
_ZNKSt6__ndk112basic_stringIcNS_11char_traitsIcEENS_9allocatorIcEEE5c_strEv:
.Lfunc_begin5:
	.loc	5 1240 0                @ Library/Android/sdk/ndk/21.4.7075529/toolchains/llvm/prebuilt/darwin-x86_64/sysroot/usr/include/c++/v1/string:1240:0
	.fnstart
	.cfi_startproc
@ %bb.0:
	.save	{r7, lr}
	push	{r7, lr}
	.cfi_def_cfa_offset 8
	.cfi_offset lr, -4
	.cfi_offset r7, -8
	.setfp	r7, sp
	mov	r7, sp
	.cfi_def_cfa_register r7
	.pad	#8
	sub	sp, #8
	str	r0, [sp, #4]
	ldr	r0, [sp, #4]
.Ltmp60:
	.loc	5 1240 54 prologue_end  @ Library/Android/sdk/ndk/21.4.7075529/toolchains/llvm/prebuilt/darwin-x86_64/sysroot/usr/include/c++/v1/string:1240:54
	bl	_ZNKSt6__ndk112basic_stringIcNS_11char_traitsIcEENS_9allocatorIcEEE4dataEv
	.loc	5 1240 47 is_stmt 0     @ Library/Android/sdk/ndk/21.4.7075529/toolchains/llvm/prebuilt/darwin-x86_64/sysroot/usr/include/c++/v1/string:1240:47
	add	sp, #8
	pop	{r7, pc}
.Ltmp61:
.Lfunc_end5:
	.size	_ZNKSt6__ndk112basic_stringIcNS_11char_traitsIcEENS_9allocatorIcEEE5c_strEv, .Lfunc_end5-_ZNKSt6__ndk112basic_stringIcNS_11char_traitsIcEENS_9allocatorIcEEE5c_strEv
	.cfi_endproc
	.fnend
                                        @ -- End function
	.section	.text._ZNSt6__ndk114basic_ofstreamIcNS_11char_traitsIcEEED1Ev,"axG",%progbits,_ZNSt6__ndk114basic_ofstreamIcNS_11char_traitsIcEEED1Ev,comdat
	.weak	_ZNSt6__ndk114basic_ofstreamIcNS_11char_traitsIcEEED1Ev @ -- Begin function _ZNSt6__ndk114basic_ofstreamIcNS_11char_traitsIcEEED1Ev
	.p2align	2
	.type	_ZNSt6__ndk114basic_ofstreamIcNS_11char_traitsIcEEED1Ev,%function
	.code	16                      @ @_ZNSt6__ndk114basic_ofstreamIcNS_11char_traitsIcEEED1Ev
	.thumb_func
_ZNSt6__ndk114basic_ofstreamIcNS_11char_traitsIcEEED1Ev:
.Lfunc_begin6:
	.loc	12 146 0 is_stmt 1      @ Library/Android/sdk/ndk/21.4.7075529/toolchains/llvm/prebuilt/darwin-x86_64/sysroot/usr/include/c++/v1/iosfwd:146:0
	.fnstart
	.cfi_startproc
@ %bb.0:
	.save	{r7, lr}
	push	{r7, lr}
	.cfi_def_cfa_offset 8
	.cfi_offset lr, -4
	.cfi_offset r7, -8
	.setfp	r7, sp
	mov	r7, sp
	.cfi_def_cfa_register r7
	.pad	#8
	sub	sp, #8
	str	r0, [sp, #4]
	ldr	r0, [sp, #4]
.Ltmp62:
	.loc	12 146 60 prologue_end  @ Library/Android/sdk/ndk/21.4.7075529/toolchains/llvm/prebuilt/darwin-x86_64/sysroot/usr/include/c++/v1/iosfwd:146:60
	ldr	r1, .LCPI6_0
.LPC6_0:
	add	r1, pc
	ldr	r1, [r1]
	str	r0, [sp]                @ 4-byte Spill
	bl	_ZNSt6__ndk114basic_ofstreamIcNS_11char_traitsIcEEED2Ev
	ldr	r0, [sp]                @ 4-byte Reload
	adds	r0, #96
	bl	_ZNSt6__ndk19basic_iosIcNS_11char_traitsIcEEED2Ev
	ldr	r0, [sp]                @ 4-byte Reload
	add	sp, #8
	pop	{r7, pc}
.Ltmp63:
	.p2align	2
@ %bb.1:
	.loc	12 0 60 is_stmt 0       @ Library/Android/sdk/ndk/21.4.7075529/toolchains/llvm/prebuilt/darwin-x86_64/sysroot/usr/include/c++/v1/iosfwd:0:60
.LCPI6_0:
.Ltmp64:
	.long	_ZTTNSt6__ndk114basic_ofstreamIcNS_11char_traitsIcEEEE(GOT_PREL)-((.LPC6_0+4)-.Ltmp64)
.Lfunc_end6:
	.size	_ZNSt6__ndk114basic_ofstreamIcNS_11char_traitsIcEEED1Ev, .Lfunc_end6-_ZNSt6__ndk114basic_ofstreamIcNS_11char_traitsIcEEED1Ev
	.cfi_endproc
	.fnend
                                        @ -- End function
	.section	.text._ZNSt6__ndk112basic_stringIcNS_11char_traitsIcEENS_9allocatorIcEEED2Ev,"axG",%progbits,_ZNSt6__ndk112basic_stringIcNS_11char_traitsIcEENS_9allocatorIcEEED2Ev,comdat
	.weak	_ZNSt6__ndk112basic_stringIcNS_11char_traitsIcEENS_9allocatorIcEEED2Ev @ -- Begin function _ZNSt6__ndk112basic_stringIcNS_11char_traitsIcEENS_9allocatorIcEEED2Ev
	.p2align	1
	.type	_ZNSt6__ndk112basic_stringIcNS_11char_traitsIcEENS_9allocatorIcEEED2Ev,%function
	.code	16                      @ @_ZNSt6__ndk112basic_stringIcNS_11char_traitsIcEENS_9allocatorIcEEED2Ev
	.thumb_func
_ZNSt6__ndk112basic_stringIcNS_11char_traitsIcEENS_9allocatorIcEEED2Ev:
.Lfunc_begin7:
	.loc	5 2123 0 is_stmt 1      @ Library/Android/sdk/ndk/21.4.7075529/toolchains/llvm/prebuilt/darwin-x86_64/sysroot/usr/include/c++/v1/string:2123:0
	.fnstart
	.cfi_startproc
@ %bb.0:
	.save	{r7, lr}
	push	{r7, lr}
	.cfi_def_cfa_offset 8
	.cfi_offset lr, -4
	.cfi_offset r7, -8
	.setfp	r7, sp
	mov	r7, sp
	.cfi_def_cfa_register r7
	.pad	#24
	sub	sp, #24
	str	r0, [sp, #16]
	ldr	r0, [sp, #16]
	str	r0, [sp, #20]
.Ltmp65:
	.loc	5 2127 9 prologue_end   @ Library/Android/sdk/ndk/21.4.7075529/toolchains/llvm/prebuilt/darwin-x86_64/sysroot/usr/include/c++/v1/string:2127:9
	str	r0, [sp, #12]           @ 4-byte Spill
	bl	_ZNKSt6__ndk112basic_stringIcNS_11char_traitsIcEENS_9allocatorIcEEE9__is_longEv
.Ltmp66:
	.loc	5 2127 9 is_stmt 0      @ Library/Android/sdk/ndk/21.4.7075529/toolchains/llvm/prebuilt/darwin-x86_64/sysroot/usr/include/c++/v1/string:2127:9
	cmp	r0, #0
	beq	.LBB7_2
	b	.LBB7_1
.LBB7_1:
.Ltmp67:
	.loc	5 2128 36 is_stmt 1     @ Library/Android/sdk/ndk/21.4.7075529/toolchains/llvm/prebuilt/darwin-x86_64/sysroot/usr/include/c++/v1/string:2128:36
	ldr	r0, [sp, #12]           @ 4-byte Reload
	bl	_ZNSt6__ndk112basic_stringIcNS_11char_traitsIcEENS_9allocatorIcEEE7__allocEv
	.loc	5 2128 47 is_stmt 0     @ Library/Android/sdk/ndk/21.4.7075529/toolchains/llvm/prebuilt/darwin-x86_64/sysroot/usr/include/c++/v1/string:2128:47
	ldr	r1, [sp, #12]           @ 4-byte Reload
	str	r0, [sp, #8]            @ 4-byte Spill
	mov	r0, r1
	bl	_ZNSt6__ndk112basic_stringIcNS_11char_traitsIcEENS_9allocatorIcEEE18__get_long_pointerEv
	.loc	5 2128 69               @ Library/Android/sdk/ndk/21.4.7075529/toolchains/llvm/prebuilt/darwin-x86_64/sysroot/usr/include/c++/v1/string:2128:69
	ldr	r1, [sp, #12]           @ 4-byte Reload
	str	r0, [sp, #4]            @ 4-byte Spill
	mov	r0, r1
	bl	_ZNKSt6__ndk112basic_stringIcNS_11char_traitsIcEENS_9allocatorIcEEE14__get_long_capEv
	.loc	5 2128 9                @ Library/Android/sdk/ndk/21.4.7075529/toolchains/llvm/prebuilt/darwin-x86_64/sysroot/usr/include/c++/v1/string:2128:9
	ldr	r1, [sp, #8]            @ 4-byte Reload
	str	r0, [sp]                @ 4-byte Spill
	mov	r0, r1
	ldr	r1, [sp, #4]            @ 4-byte Reload
	ldr	r2, [sp]                @ 4-byte Reload
	bl	_ZNSt6__ndk116allocator_traitsINS_9allocatorIcEEE10deallocateERS2_Pcj
	b	.LBB7_2
.Ltmp68:
.LBB7_2:
	.loc	5 2129 1 is_stmt 1      @ Library/Android/sdk/ndk/21.4.7075529/toolchains/llvm/prebuilt/darwin-x86_64/sysroot/usr/include/c++/v1/string:2129:1
	ldr	r0, [sp, #20]
	add	sp, #24
	pop	{r7, pc}
.Ltmp69:
.Lfunc_end7:
	.size	_ZNSt6__ndk112basic_stringIcNS_11char_traitsIcEENS_9allocatorIcEEED2Ev, .Lfunc_end7-_ZNSt6__ndk112basic_stringIcNS_11char_traitsIcEENS_9allocatorIcEEED2Ev
	.cfi_endproc
	.fnend
                                        @ -- End function
	.section	.text._ZN10RtmpClientD2Ev,"ax",%progbits
	.globl	_ZN10RtmpClientD2Ev     @ -- Begin function _ZN10RtmpClientD2Ev
	.p2align	1
	.type	_ZN10RtmpClientD2Ev,%function
	.code	16                      @ @_ZN10RtmpClientD2Ev
	.thumb_func
_ZN10RtmpClientD2Ev:
.Lfunc_begin8:
	.loc	62 49 0                 @ src/main/cpp/RtmpClient.cpp:49:0
	.fnstart
	.cfi_startproc
@ %bb.0:
	.save	{r7, lr}
	push	{r7, lr}
	.cfi_def_cfa_offset 8
	.cfi_offset lr, -4
	.cfi_offset r7, -8
	.setfp	r7, sp
	mov	r7, sp
	.cfi_def_cfa_register r7
	.pad	#16
	sub	sp, #16
	str	r0, [sp, #12]
	ldr	r0, [sp, #12]
.Ltmp70:
.Ltmp73:
	.loc	62 49 29 prologue_end   @ src/main/cpp/RtmpClient.cpp:49:29
	str	r0, [sp]                @ 4-byte Spill
	bl	_ZN10RtmpClient4stopEv
.Ltmp71:
	b	.LBB8_1
.LBB8_1:
	.loc	62 49 37 is_stmt 0      @ src/main/cpp/RtmpClient.cpp:49:37
	ldr	r0, [sp]                @ 4-byte Reload
	adds	r0, #228
	bl	_ZNSt6__ndk114basic_ofstreamIcNS_11char_traitsIcEEED1Ev
	ldr	r0, [sp]                @ 4-byte Reload
	adds	r0, #216
	bl	_ZNSt6__ndk112basic_stringIcNS_11char_traitsIcEENS_9allocatorIcEEED2Ev
	ldr	r0, [sp]                @ 4-byte Reload
	adds	r0, #36
	bl	_ZNSt6__ndk114basic_ofstreamIcNS_11char_traitsIcEEED1Ev
	ldr	r0, [sp]                @ 4-byte Reload
	adds	r0, #24
	bl	_ZNSt6__ndk112basic_stringIcNS_11char_traitsIcEENS_9allocatorIcEEED2Ev
	ldr	r0, [sp]                @ 4-byte Reload
	adds	r0, #4
	bl	_ZNSt6__ndk112basic_stringIcNS_11char_traitsIcEENS_9allocatorIcEEED2Ev
.Ltmp74:
	.loc	62 49 37                @ src/main/cpp/RtmpClient.cpp:49:37
	ldr	r0, [sp]                @ 4-byte Reload
	add	sp, #16
	pop	{r7, pc}
.LBB8_2:
.Ltmp72:
.Ltmp75:
	.loc	62 49 37                @ src/main/cpp/RtmpClient.cpp:49:37
	str	r0, [sp, #8]
	str	r1, [sp, #4]
	ldr	r0, [sp]                @ 4-byte Reload
	adds	r0, #228
	bl	_ZNSt6__ndk114basic_ofstreamIcNS_11char_traitsIcEEED1Ev
	ldr	r0, [sp]                @ 4-byte Reload
	adds	r0, #216
	bl	_ZNSt6__ndk112basic_stringIcNS_11char_traitsIcEENS_9allocatorIcEEED2Ev
	ldr	r0, [sp]                @ 4-byte Reload
	adds	r0, #36
	bl	_ZNSt6__ndk114basic_ofstreamIcNS_11char_traitsIcEEED1Ev
	ldr	r0, [sp]                @ 4-byte Reload
	adds	r0, #24
	bl	_ZNSt6__ndk112basic_stringIcNS_11char_traitsIcEENS_9allocatorIcEEED2Ev
	ldr	r0, [sp]                @ 4-byte Reload
	adds	r0, #4
	bl	_ZNSt6__ndk112basic_stringIcNS_11char_traitsIcEENS_9allocatorIcEEED2Ev
	b	.LBB8_3
.LBB8_3:
	ldr	r0, [sp, #8]
	bl	__clang_call_terminate
.Ltmp76:
.Lfunc_end8:
	.size	_ZN10RtmpClientD2Ev, .Lfunc_end8-_ZN10RtmpClientD2Ev
	.cfi_endproc
	.globl	__gxx_personality_v0
	.personality __gxx_personality_v0
	.handlerdata
	.p2align	2
GCC_except_table8:
.Lexception2:
	.byte	255                     @ @LPStart Encoding = omit
	.byte	0                       @ @TType Encoding = absptr
	.uleb128 .Lttbase0-.Lttbaseref0
.Lttbaseref0:
	.byte	1                       @ Call site Encoding = uleb128
	.uleb128 .Lcst_end2-.Lcst_begin2
.Lcst_begin2:
	.uleb128 .Ltmp70-.Lfunc_begin8  @ >> Call Site 1 <<
	.uleb128 .Ltmp71-.Ltmp70        @   Call between .Ltmp70 and .Ltmp71
	.uleb128 .Ltmp72-.Lfunc_begin8  @     jumps to .Ltmp72
	.byte	1                       @   On action: 1
.Lcst_end2:
	.byte	1                       @ >> Action Record 1 <<
                                        @   Catch TypeInfo 1
	.byte	0                       @   No further actions
	.p2align	2
                                        @ >> Catch TypeInfos <<
	.long	0                       @ TypeInfo 1
.Lttbase0:
	.p2align	2
	.fnend
                                        @ -- End function
	.section	.text._ZN10RtmpClient4stopEv,"ax",%progbits
	.globl	_ZN10RtmpClient4stopEv  @ -- Begin function _ZN10RtmpClient4stopEv
	.p2align	1
	.type	_ZN10RtmpClient4stopEv,%function
	.code	16                      @ @_ZN10RtmpClient4stopEv
	.thumb_func
_ZN10RtmpClient4stopEv:
.Lfunc_begin9:
	.loc	62 401 0 is_stmt 1      @ src/main/cpp/RtmpClient.cpp:401:0
	.fnstart
	.cfi_startproc
@ %bb.0:
	.save	{r7, lr}
	push	{r7, lr}
	.cfi_def_cfa_offset 8
	.cfi_offset lr, -4
	.cfi_offset r7, -8
	.setfp	r7, sp
	mov	r7, sp
	.cfi_def_cfa_register r7
	.pad	#8
	sub	sp, #8
	str	r0, [sp, #4]
	ldr	r0, [sp, #4]
.Ltmp77:
	.loc	62 402 9 prologue_end   @ src/main/cpp/RtmpClient.cpp:402:9
	ldrb	r1, [r0, #20]
.Ltmp78:
	.loc	62 402 9 is_stmt 0      @ src/main/cpp/RtmpClient.cpp:402:9
	lsls	r1, r1, #31
	cmp	r1, #0
	str	r0, [sp]                @ 4-byte Spill
	beq	.LBB9_2
	b	.LBB9_1
.LBB9_1:
.Ltmp79:
	.loc	62 403 9 is_stmt 1      @ src/main/cpp/RtmpClient.cpp:403:9
	ldr	r0, [sp]                @ 4-byte Reload
	adds	r0, #36
	.loc	62 403 28 is_stmt 0     @ src/main/cpp/RtmpClient.cpp:403:28
	bl	_ZNSt6__ndk114basic_ofstreamIcNS_11char_traitsIcEEE5closeEv
	.loc	62 404 5 is_stmt 1      @ src/main/cpp/RtmpClient.cpp:404:5
	b	.LBB9_2
.Ltmp80:
.LBB9_2:
	.loc	62 405 16               @ src/main/cpp/RtmpClient.cpp:405:16
	ldr	r0, [sp]                @ 4-byte Reload
	ldr	r0, [r0]
	.loc	62 405 5 is_stmt 0      @ src/main/cpp/RtmpClient.cpp:405:5
	bl	RTMP_Close
	.loc	62 406 15 is_stmt 1     @ src/main/cpp/RtmpClient.cpp:406:15
	ldr	r0, [sp]                @ 4-byte Reload
	ldr	r0, [r0]
	.loc	62 406 5 is_stmt 0      @ src/main/cpp/RtmpClient.cpp:406:5
	bl	RTMP_Free
	movs	r0, #0
	.loc	62 407 5 is_stmt 1      @ src/main/cpp/RtmpClient.cpp:407:5
	add	sp, #8
	pop	{r7, pc}
.Ltmp81:
.Lfunc_end9:
	.size	_ZN10RtmpClient4stopEv, .Lfunc_end9-_ZN10RtmpClient4stopEv
	.cfi_endproc
	.fnend
                                        @ -- End function
	.section	.text.__clang_call_terminate,"axG",%progbits,__clang_call_terminate,comdat
	.hidden	__clang_call_terminate  @ -- Begin function __clang_call_terminate
	.weak	__clang_call_terminate
	.p2align	1
	.type	__clang_call_terminate,%function
	.code	16                      @ @__clang_call_terminate
	.thumb_func
__clang_call_terminate:
.Lfunc_begin10:
	.fnstart
	.cfi_startproc
@ %bb.0:
	.pad	#8
	sub	sp, #8
	.cfi_def_cfa_offset 8
	bl	__cxa_begin_catch
	str	r0, [sp, #4]            @ 4-byte Spill
	bl	_ZSt9terminatev
.Lfunc_end10:
	.size	__clang_call_terminate, .Lfunc_end10-__clang_call_terminate
	.cfi_endproc
	.cantunwind
	.fnend
                                        @ -- End function
	.section	.text._ZN10RtmpClient7ConnectEv,"ax",%progbits
	.globl	_ZN10RtmpClient7ConnectEv @ -- Begin function _ZN10RtmpClient7ConnectEv
	.p2align	2
	.type	_ZN10RtmpClient7ConnectEv,%function
	.code	16                      @ @_ZN10RtmpClient7ConnectEv
	.thumb_func
_ZN10RtmpClient7ConnectEv:
.Lfunc_begin11:
	.loc	62 51 0                 @ src/main/cpp/RtmpClient.cpp:51:0
	.fnstart
	.cfi_startproc
@ %bb.0:
	.save	{r7, lr}
	push	{r7, lr}
	.cfi_def_cfa_offset 8
	.cfi_offset lr, -4
	.cfi_offset r7, -8
	.setfp	r7, sp
	mov	r7, sp
	.cfi_def_cfa_register r7
	.pad	#40
	sub	sp, #40
	str	r0, [sp, #32]
	ldr	r0, [sp, #32]
.Ltmp82:
	.loc	62 52 5 prologue_end    @ src/main/cpp/RtmpClient.cpp:52:5
	ldr	r1, .LCPI11_0
.LPC11_0:
	add	r1, pc
	ldr	r2, .LCPI11_1
.LPC11_1:
	add	r2, pc
	movs	r3, #4
	str	r0, [sp, #28]           @ 4-byte Spill
	mov	r0, r3
	str	r3, [sp, #24]           @ 4-byte Spill
	bl	__android_log_print
	.loc	62 53 5                 @ src/main/cpp/RtmpClient.cpp:53:5
	ldr	r1, [sp, #24]           @ 4-byte Reload
	str	r0, [sp, #20]           @ 4-byte Spill
	mov	r0, r1
	bl	RTMP_LogSetLevel
	.loc	62 54 5                 @ src/main/cpp/RtmpClient.cpp:54:5
	ldr	r0, .LCPI11_2
.LPC11_2:
	add	r0, pc
	bl	RTMP_LogSetCallback
	.loc	62 56 13                @ src/main/cpp/RtmpClient.cpp:56:13
	bl	RTMP_Alloc
	.loc	62 56 11 is_stmt 0      @ src/main/cpp/RtmpClient.cpp:56:11
	ldr	r1, [sp, #28]           @ 4-byte Reload
	str	r0, [r1]
	.loc	62 57 15 is_stmt 1      @ src/main/cpp/RtmpClient.cpp:57:15
	ldr	r0, [r1]
	.loc	62 57 5 is_stmt 0       @ src/main/cpp/RtmpClient.cpp:57:5
	bl	RTMP_Init
	.loc	62 58 5 is_stmt 1       @ src/main/cpp/RtmpClient.cpp:58:5
	ldr	r0, [sp, #28]           @ 4-byte Reload
	ldr	r1, [r0]
	.loc	62 58 27 is_stmt 0      @ src/main/cpp/RtmpClient.cpp:58:27
	ldr	r2, [r0, #16]
	movw	r3, #16780
	.loc	62 58 25                @ src/main/cpp/RtmpClient.cpp:58:25
	str	r2, [r1, r3]
	.loc	62 59 19 is_stmt 1      @ src/main/cpp/RtmpClient.cpp:59:19
	ldr	r0, [r0]
	.loc	62 59 35 is_stmt 0      @ src/main/cpp/RtmpClient.cpp:59:35
	ldr	r1, [sp, #28]           @ 4-byte Reload
	adds	r2, r1, #4
	.loc	62 59 40                @ src/main/cpp/RtmpClient.cpp:59:40
	str	r0, [sp, #16]           @ 4-byte Spill
	mov	r0, r2
	bl	_ZNKSt6__ndk112basic_stringIcNS_11char_traitsIcEENS_9allocatorIcEEE5c_strEv
	.loc	62 59 5                 @ src/main/cpp/RtmpClient.cpp:59:5
	ldr	r1, [sp, #16]           @ 4-byte Reload
	str	r0, [sp, #12]           @ 4-byte Spill
	mov	r0, r1
	ldr	r1, [sp, #12]           @ 4-byte Reload
	bl	RTMP_SetupURL
	.loc	62 60 22 is_stmt 1      @ src/main/cpp/RtmpClient.cpp:60:22
	ldr	r1, [sp, #28]           @ 4-byte Reload
	ldr	r2, [r1]
	.loc	62 60 5 is_stmt 0       @ src/main/cpp/RtmpClient.cpp:60:5
	str	r0, [sp, #8]            @ 4-byte Spill
	mov	r0, r2
	bl	RTMP_EnableWrite
.Ltmp83:
	.loc	62 61 23 is_stmt 1      @ src/main/cpp/RtmpClient.cpp:61:23
	ldr	r0, [sp, #28]           @ 4-byte Reload
	ldr	r0, [r0]
	movs	r1, #0
	.loc	62 61 10 is_stmt 0      @ src/main/cpp/RtmpClient.cpp:61:10
	bl	RTMP_Connect
.Ltmp84:
	.loc	62 61 9                 @ src/main/cpp/RtmpClient.cpp:61:9
	cmp	r0, #0
	bne	.LBB11_2
	b	.LBB11_1
.LBB11_1:
.Ltmp85:
	.loc	62 62 9 is_stmt 1       @ src/main/cpp/RtmpClient.cpp:62:9
	ldr	r1, .LCPI11_3
.LPC11_3:
	add	r1, pc
	ldr	r2, .LCPI11_4
.LPC11_4:
	add	r2, pc
	movs	r0, #4
	bl	__android_log_print
	mov.w	r1, #-1
	.loc	62 63 9                 @ src/main/cpp/RtmpClient.cpp:63:9
	str	r1, [sp, #36]
	b	.LBB11_5
.Ltmp86:
.LBB11_2:
	.loc	62 65 5                 @ src/main/cpp/RtmpClient.cpp:65:5
	ldr	r1, .LCPI11_5
.LPC11_5:
	add	r1, pc
	ldr	r2, .LCPI11_6
.LPC11_6:
	add	r2, pc
	movs	r0, #4
	bl	__android_log_print
.Ltmp87:
	.loc	62 66 29                @ src/main/cpp/RtmpClient.cpp:66:29
	ldr	r1, [sp, #28]           @ 4-byte Reload
	ldr	r2, [r1]
	movs	r1, #0
	.loc	62 66 10 is_stmt 0      @ src/main/cpp/RtmpClient.cpp:66:10
	str	r0, [sp, #4]            @ 4-byte Spill
	mov	r0, r2
	bl	RTMP_ConnectStream
.Ltmp88:
	.loc	62 66 9                 @ src/main/cpp/RtmpClient.cpp:66:9
	cmp	r0, #0
	bne	.LBB11_4
	b	.LBB11_3
.LBB11_3:
.Ltmp89:
	.loc	62 67 9 is_stmt 1       @ src/main/cpp/RtmpClient.cpp:67:9
	ldr	r1, .LCPI11_7
.LPC11_7:
	add	r1, pc
	ldr	r2, .LCPI11_8
.LPC11_8:
	add	r2, pc
	movs	r0, #4
	bl	__android_log_print
	mov.w	r1, #-1
	.loc	62 68 9                 @ src/main/cpp/RtmpClient.cpp:68:9
	str	r1, [sp, #36]
	b	.LBB11_5
.Ltmp90:
.LBB11_4:
	.loc	62 70 5                 @ src/main/cpp/RtmpClient.cpp:70:5
	ldr	r1, .LCPI11_9
.LPC11_9:
	add	r1, pc
	ldr	r2, .LCPI11_10
.LPC11_10:
	add	r2, pc
	movs	r0, #4
	bl	__android_log_print
	movs	r1, #0
	.loc	62 71 5                 @ src/main/cpp/RtmpClient.cpp:71:5
	str	r1, [sp, #36]
	b	.LBB11_5
.LBB11_5:
	.loc	62 72 1                 @ src/main/cpp/RtmpClient.cpp:72:1
	ldr	r0, [sp, #36]
	add	sp, #40
	pop	{r7, pc}
.Ltmp91:
	.p2align	2
@ %bb.6:
	.loc	62 0 1 is_stmt 0        @ src/main/cpp/RtmpClient.cpp:0:1
.LCPI11_0:
	.long	.L.str-(.LPC11_0+4)
.LCPI11_1:
	.long	.L.str.2-(.LPC11_1+4)
.LCPI11_2:
	.long	_ZL12rtmp_log_impiPKcSt9__va_list-(.LPC11_2+4)
.LCPI11_3:
	.long	.L.str-(.LPC11_3+4)
.LCPI11_4:
	.long	.L.str.3-(.LPC11_4+4)
.LCPI11_5:
	.long	.L.str-(.LPC11_5+4)
.LCPI11_6:
	.long	.L.str.4-(.LPC11_6+4)
.LCPI11_7:
	.long	.L.str-(.LPC11_7+4)
.LCPI11_8:
	.long	.L.str.5-(.LPC11_8+4)
.LCPI11_9:
	.long	.L.str-(.LPC11_9+4)
.LCPI11_10:
	.long	.L.str.6-(.LPC11_10+4)
.Lfunc_end11:
	.size	_ZN10RtmpClient7ConnectEv, .Lfunc_end11-_ZN10RtmpClient7ConnectEv
	.cfi_endproc
	.fnend
                                        @ -- End function
	.section	.text._ZL12rtmp_log_impiPKcSt9__va_list,"ax",%progbits
	.p2align	2               @ -- Begin function _ZL12rtmp_log_impiPKcSt9__va_list
	.type	_ZL12rtmp_log_impiPKcSt9__va_list,%function
	.code	16                      @ @_ZL12rtmp_log_impiPKcSt9__va_list
	.thumb_func
_ZL12rtmp_log_impiPKcSt9__va_list:
.Lfunc_begin12:
	.file	65 "/Users/bytedance/code/my/LiveStream/AndroidPublisher/rtmplive" "src/main/cpp/logger.h"
	.loc	65 24 0 is_stmt 1       @ src/main/cpp/logger.h:24:0
	.fnstart
	.cfi_startproc
@ %bb.0:
	.save	{r7, lr}
	push	{r7, lr}
	.cfi_def_cfa_offset 8
	.cfi_offset lr, -4
	.cfi_offset r7, -8
	.setfp	r7, sp
	mov	r7, sp
	.cfi_def_cfa_register r7
	.pad	#2080
	sub.w	sp, sp, #2080
	.pad	#8
	sub	sp, #8
	ldr	r3, .LCPI12_0
.LPC12_0:
	add	r3, pc
	ldr	r3, [r3]
	ldr	r3, [r3]
	str	r3, [r7, #-4]
	str	r2, [sp, #16]
	str	r0, [sp, #12]
	str	r1, [sp, #8]
	add	r0, sp, #36
	mov.w	r1, #2048
.Ltmp92:
	.loc	65 25 10 prologue_end   @ src/main/cpp/logger.h:25:10
	str	r0, [sp]                @ 4-byte Spill
	bl	__aeabi_memclr
	.loc	65 26 30                @ src/main/cpp/logger.h:26:30
	ldr	r2, [sp, #8]
	.loc	65 26 38 is_stmt 0      @ src/main/cpp/logger.h:26:38
	ldr	r0, [sp, #16]
	str	r0, [sp, #4]
	.loc	65 26 5                 @ src/main/cpp/logger.h:26:5
	ldr	r3, [sp, #4]
	movw	r1, #2047
	ldr	r0, [sp]                @ 4-byte Reload
	bl	vsnprintf
.Ltmp93:
	.loc	65 27 9 is_stmt 1       @ src/main/cpp/logger.h:27:9
	ldr	r1, .LCPI12_1
.LPC12_1:
	add	r1, pc
	ldr	r1, [r1]
	ldr	r1, [r1]
	.loc	65 27 39 is_stmt 0      @ src/main/cpp/logger.h:27:39
	cmp	r1, #5
	bgt	.LBB12_3
	b	.LBB12_1
.LBB12_1:
	.loc	65 0 39                 @ src/main/cpp/logger.h:0:39
	add	r0, sp, #36
	str	r0, [sp, #24]
	ldr	r0, .LCPI12_2
.LPC12_2:
	add	r0, pc
	str	r0, [sp, #20]
.Ltmp94:
	.loc	34 257 28 is_stmt 1     @ Library/Android/sdk/ndk/21.4.7075529/toolchains/llvm/prebuilt/darwin-x86_64/sysroot/usr/include/string.h:257:28
	ldr	r0, [sp, #24]
	.loc	34 257 31 is_stmt 0     @ Library/Android/sdk/ndk/21.4.7075529/toolchains/llvm/prebuilt/darwin-x86_64/sysroot/usr/include/string.h:257:31
	ldr	r1, [sp, #20]
	str	r0, [sp, #32]
	str	r1, [sp, #28]
.Ltmp95:
	.loc	34 248 69 is_stmt 1     @ Library/Android/sdk/ndk/21.4.7075529/toolchains/llvm/prebuilt/darwin-x86_64/sysroot/usr/include/string.h:248:69
	ldr	r0, [sp, #32]
	.loc	34 248 72 is_stmt 0     @ Library/Android/sdk/ndk/21.4.7075529/toolchains/llvm/prebuilt/darwin-x86_64/sysroot/usr/include/string.h:248:72
	ldr	r1, [sp, #28]
	.loc	34 248 62               @ Library/Android/sdk/ndk/21.4.7075529/toolchains/llvm/prebuilt/darwin-x86_64/sysroot/usr/include/string.h:248:62
	bl	strstr
.Ltmp96:
	.loc	65 27 9 is_stmt 1       @ src/main/cpp/logger.h:27:9
	cmp	r0, #0
	beq	.LBB12_3
	b	.LBB12_2
.LBB12_2:
.Ltmp97:
	.loc	65 28 9                 @ src/main/cpp/logger.h:28:9
	b	.LBB12_4
.Ltmp98:
.LBB12_3:
	.loc	65 30 5                 @ src/main/cpp/logger.h:30:5
	ldr	r1, .LCPI12_3
.LPC12_3:
	add	r1, pc
	ldr	r2, .LCPI12_4
.LPC12_4:
	add	r2, pc
	movs	r0, #4
	add	r3, sp, #36
	bl	__android_log_print
	.loc	65 31 1                 @ src/main/cpp/logger.h:31:1
	b	.LBB12_4
.LBB12_4:
	.loc	65 0 1 is_stmt 0        @ src/main/cpp/logger.h:0:1
	ldr	r0, .LCPI12_5
.LPC12_5:
	add	r0, pc
	ldr	r0, [r0]
	ldr	r0, [r0]
	ldr	r1, [r7, #-4]
	cmp	r0, r1
	bne	.LBB12_6
	b	.LBB12_5
.LBB12_5:                               @ %SP_return
	.loc	65 31 1                 @ src/main/cpp/logger.h:31:1
	add.w	sp, sp, #2080
	add	sp, #8
	pop	{r7, pc}
.LBB12_6:                               @ %CallStackCheckFailBlk
	.loc	65 0 0                  @ src/main/cpp/logger.h:0:0
	bl	__stack_chk_fail
.Ltmp99:
	.p2align	2
@ %bb.7:
.LCPI12_0:
.Ltmp100:
	.long	__stack_chk_guard(GOT_PREL)-((.LPC12_0+4)-.Ltmp100)
.LCPI12_1:
.Ltmp101:
	.long	RTMP_debuglevel(GOT_PREL)-((.LPC12_1+4)-.Ltmp101)
.LCPI12_2:
	.long	.L.str.12-(.LPC12_2+4)
.LCPI12_3:
	.long	.L.str-(.LPC12_3+4)
.LCPI12_4:
	.long	.L.str.13-(.LPC12_4+4)
.LCPI12_5:
.Ltmp102:
	.long	__stack_chk_guard(GOT_PREL)-((.LPC12_5+4)-.Ltmp102)
.Lfunc_end12:
	.size	_ZL12rtmp_log_impiPKcSt9__va_list, .Lfunc_end12-_ZL12rtmp_log_impiPKcSt9__va_list
	.cfi_endproc
	.fnend
                                        @ -- End function
	.section	.text._ZN10RtmpClient13sendSpsAndPpsEPhiS0_il,"ax",%progbits
	.globl	_ZN10RtmpClient13sendSpsAndPpsEPhiS0_il @ -- Begin function _ZN10RtmpClient13sendSpsAndPpsEPhiS0_il
	.p2align	2
	.type	_ZN10RtmpClient13sendSpsAndPpsEPhiS0_il,%function
	.code	16                      @ @_ZN10RtmpClient13sendSpsAndPpsEPhiS0_il
	.thumb_func
_ZN10RtmpClient13sendSpsAndPpsEPhiS0_il:
.Lfunc_begin13:
	.loc	62 74 0 is_stmt 1       @ src/main/cpp/RtmpClient.cpp:74:0
	.fnstart
	.cfi_startproc
@ %bb.0:
	.save	{r4, r6, r7, lr}
	push	{r4, r6, r7, lr}
	.cfi_def_cfa_offset 16
	.cfi_offset lr, -4
	.cfi_offset r7, -8
	.cfi_offset r6, -12
	.cfi_offset r4, -16
	.setfp	r7, sp, #8
	add	r7, sp, #8
	.cfi_def_cfa r7, 8
	.pad	#80
	sub	sp, #80
	ldr.w	r12, [r7, #12]
	ldr.w	lr, [r7, #8]
	ldr	r4, .LCPI13_0
.LPC13_0:
	add	r4, pc
	ldr	r4, [r4]
	ldr	r4, [r4]
	str	r4, [sp, #76]
	str	r0, [sp, #52]
	str	r1, [sp, #48]
	str	r2, [sp, #44]
	str	r3, [sp, #40]
	ldr	r0, [sp, #52]
	movw	r1, #1074
.Ltmp103:
	.loc	62 77 41 prologue_end   @ src/main/cpp/RtmpClient.cpp:77:41
	str	r0, [sp, #28]           @ 4-byte Spill
	mov	r0, r1
	str.w	r12, [sp, #24]          @ 4-byte Spill
	str.w	lr, [sp, #20]           @ 4-byte Spill
	bl	malloc
	.loc	62 77 17 is_stmt 0      @ src/main/cpp/RtmpClient.cpp:77:17
	str	r0, [sp, #36]
	.loc	62 78 12 is_stmt 1      @ src/main/cpp/RtmpClient.cpp:78:12
	ldr	r0, [sp, #36]
	str	r0, [sp, #68]
	mov.w	r0, #-1
	str	r0, [sp, #64]
	movs	r0, #0
	str	r0, [sp, #60]
	movs	r1, #50
	str	r1, [sp, #56]
.Ltmp104:
	.loc	35 153 29               @ Library/Android/sdk/ndk/21.4.7075529/toolchains/llvm/prebuilt/darwin-x86_64/sysroot/usr/include/bits/fortify/string.h:153:29
	ldr	r1, [sp, #68]
	.loc	35 153 32 is_stmt 0     @ Library/Android/sdk/ndk/21.4.7075529/toolchains/llvm/prebuilt/darwin-x86_64/sysroot/usr/include/bits/fortify/string.h:153:32
	ldrb.w	r2, [sp, #60]
	.loc	35 153 35               @ Library/Android/sdk/ndk/21.4.7075529/toolchains/llvm/prebuilt/darwin-x86_64/sysroot/usr/include/bits/fortify/string.h:153:35
	ldr	r3, [sp, #56]
	.loc	35 153 12               @ Library/Android/sdk/ndk/21.4.7075529/toolchains/llvm/prebuilt/darwin-x86_64/sysroot/usr/include/bits/fortify/string.h:153:12
	str	r0, [sp, #16]           @ 4-byte Spill
	mov	r0, r1
	mov	r1, r3
	bl	__aeabi_memset
.Ltmp105:
	.loc	62 79 31 is_stmt 1      @ src/main/cpp/RtmpClient.cpp:79:31
	ldr	r0, [sp, #36]
	.loc	62 79 38 is_stmt 0      @ src/main/cpp/RtmpClient.cpp:79:38
	add.w	r1, r0, #50
	.loc	62 79 20                @ src/main/cpp/RtmpClient.cpp:79:20
	str	r1, [r0, #28]
	.loc	62 80 33 is_stmt 1      @ src/main/cpp/RtmpClient.cpp:80:33
	ldr	r0, [sp, #36]
	.loc	62 80 41 is_stmt 0      @ src/main/cpp/RtmpClient.cpp:80:41
	ldr	r0, [r0, #28]
	.loc	62 80 14                @ src/main/cpp/RtmpClient.cpp:80:14
	str	r0, [sp, #32]
	.loc	62 82 7 is_stmt 1       @ src/main/cpp/RtmpClient.cpp:82:7
	ldr	r0, [sp, #16]           @ 4-byte Reload
	str	r0, [sp, #72]
	.loc	62 83 5                 @ src/main/cpp/RtmpClient.cpp:83:5
	ldr	r1, [sp, #32]
	.loc	62 83 11 is_stmt 0      @ src/main/cpp/RtmpClient.cpp:83:11
	ldr	r2, [sp, #72]
	adds	r3, r2, #1
	str	r3, [sp, #72]
	movs	r3, #23
	.loc	62 83 15                @ src/main/cpp/RtmpClient.cpp:83:15
	strb	r3, [r1, r2]
	.loc	62 84 5 is_stmt 1       @ src/main/cpp/RtmpClient.cpp:84:5
	ldr	r1, [sp, #32]
	.loc	62 84 11 is_stmt 0      @ src/main/cpp/RtmpClient.cpp:84:11
	ldr	r2, [sp, #72]
	adds	r3, r2, #1
	str	r3, [sp, #72]
	.loc	62 84 15                @ src/main/cpp/RtmpClient.cpp:84:15
	strb	r0, [r1, r2]
	.loc	62 86 5 is_stmt 1       @ src/main/cpp/RtmpClient.cpp:86:5
	ldr	r1, [sp, #32]
	.loc	62 86 11 is_stmt 0      @ src/main/cpp/RtmpClient.cpp:86:11
	ldr	r2, [sp, #72]
	adds	r3, r2, #1
	str	r3, [sp, #72]
	.loc	62 86 15                @ src/main/cpp/RtmpClient.cpp:86:15
	strb	r0, [r1, r2]
	.loc	62 87 5 is_stmt 1       @ src/main/cpp/RtmpClient.cpp:87:5
	ldr	r1, [sp, #32]
	.loc	62 87 11 is_stmt 0      @ src/main/cpp/RtmpClient.cpp:87:11
	ldr	r2, [sp, #72]
	adds	r3, r2, #1
	str	r3, [sp, #72]
	.loc	62 87 15                @ src/main/cpp/RtmpClient.cpp:87:15
	strb	r0, [r1, r2]
	.loc	62 88 5 is_stmt 1       @ src/main/cpp/RtmpClient.cpp:88:5
	ldr	r1, [sp, #32]
	.loc	62 88 11 is_stmt 0      @ src/main/cpp/RtmpClient.cpp:88:11
	ldr	r2, [sp, #72]
	adds	r3, r2, #1
	str	r3, [sp, #72]
	.loc	62 88 15                @ src/main/cpp/RtmpClient.cpp:88:15
	strb	r0, [r1, r2]
	.loc	62 91 5 is_stmt 1       @ src/main/cpp/RtmpClient.cpp:91:5
	ldr	r1, [sp, #32]
	.loc	62 91 11 is_stmt 0      @ src/main/cpp/RtmpClient.cpp:91:11
	ldr	r2, [sp, #72]
	adds	r3, r2, #1
	str	r3, [sp, #72]
	movs	r3, #1
	.loc	62 91 15                @ src/main/cpp/RtmpClient.cpp:91:15
	strb	r3, [r1, r2]
	.loc	62 92 17 is_stmt 1      @ src/main/cpp/RtmpClient.cpp:92:17
	ldr	r1, [sp, #48]
	ldrb	r1, [r1, #1]
	.loc	62 92 5 is_stmt 0       @ src/main/cpp/RtmpClient.cpp:92:5
	ldr	r2, [sp, #32]
	.loc	62 92 11                @ src/main/cpp/RtmpClient.cpp:92:11
	ldr.w	r12, [sp, #72]
	add.w	lr, r12, #1
	str.w	lr, [sp, #72]
	.loc	62 92 15                @ src/main/cpp/RtmpClient.cpp:92:15
	strb.w	r1, [r2, r12]
	.loc	62 93 17 is_stmt 1      @ src/main/cpp/RtmpClient.cpp:93:17
	ldr	r1, [sp, #48]
	ldrb	r1, [r1, #2]
	.loc	62 93 5 is_stmt 0       @ src/main/cpp/RtmpClient.cpp:93:5
	ldr	r2, [sp, #32]
	.loc	62 93 11                @ src/main/cpp/RtmpClient.cpp:93:11
	ldr.w	r12, [sp, #72]
	add.w	lr, r12, #1
	str.w	lr, [sp, #72]
	.loc	62 93 15                @ src/main/cpp/RtmpClient.cpp:93:15
	strb.w	r1, [r2, r12]
	.loc	62 94 17 is_stmt 1      @ src/main/cpp/RtmpClient.cpp:94:17
	ldr	r1, [sp, #48]
	ldrb	r1, [r1, #3]
	.loc	62 94 5 is_stmt 0       @ src/main/cpp/RtmpClient.cpp:94:5
	ldr	r2, [sp, #32]
	.loc	62 94 11                @ src/main/cpp/RtmpClient.cpp:94:11
	ldr.w	r12, [sp, #72]
	add.w	lr, r12, #1
	str.w	lr, [sp, #72]
	.loc	62 94 15                @ src/main/cpp/RtmpClient.cpp:94:15
	strb.w	r1, [r2, r12]
	.loc	62 95 5 is_stmt 1       @ src/main/cpp/RtmpClient.cpp:95:5
	ldr	r1, [sp, #32]
	.loc	62 95 11 is_stmt 0      @ src/main/cpp/RtmpClient.cpp:95:11
	ldr	r2, [sp, #72]
	add.w	r12, r2, #1
	str.w	r12, [sp, #72]
	mov.w	r12, #255
	.loc	62 95 15                @ src/main/cpp/RtmpClient.cpp:95:15
	strb.w	r12, [r1, r2]
	.loc	62 98 5 is_stmt 1       @ src/main/cpp/RtmpClient.cpp:98:5
	ldr	r1, [sp, #32]
	.loc	62 98 11 is_stmt 0      @ src/main/cpp/RtmpClient.cpp:98:11
	ldr	r2, [sp, #72]
	add.w	r12, r2, #1
	str.w	r12, [sp, #72]
	mov.w	r12, #225
	.loc	62 98 15                @ src/main/cpp/RtmpClient.cpp:98:15
	strb.w	r12, [r1, r2]
	.loc	62 99 18 is_stmt 1      @ src/main/cpp/RtmpClient.cpp:99:18
	ldr	r1, [sp, #44]
	.loc	62 99 25 is_stmt 0      @ src/main/cpp/RtmpClient.cpp:99:25
	lsrs	r1, r1, #8
	.loc	62 99 5                 @ src/main/cpp/RtmpClient.cpp:99:5
	ldr	r2, [sp, #32]
	.loc	62 99 11                @ src/main/cpp/RtmpClient.cpp:99:11
	ldr.w	r12, [sp, #72]
	add.w	lr, r12, #1
	str.w	lr, [sp, #72]
	.loc	62 99 15                @ src/main/cpp/RtmpClient.cpp:99:15
	strb.w	r1, [r2, r12]
	.loc	62 100 17 is_stmt 1     @ src/main/cpp/RtmpClient.cpp:100:17
	ldr	r1, [sp, #44]
	.loc	62 100 5 is_stmt 0      @ src/main/cpp/RtmpClient.cpp:100:5
	ldr	r2, [sp, #32]
	.loc	62 100 11               @ src/main/cpp/RtmpClient.cpp:100:11
	ldr.w	r12, [sp, #72]
	add.w	lr, r12, #1
	str.w	lr, [sp, #72]
	.loc	62 100 15               @ src/main/cpp/RtmpClient.cpp:100:15
	strb.w	r1, [r2, r12]
	.loc	62 102 13 is_stmt 1     @ src/main/cpp/RtmpClient.cpp:102:13
	ldr	r1, [sp, #32]
	.loc	62 102 18 is_stmt 0     @ src/main/cpp/RtmpClient.cpp:102:18
	ldr	r2, [sp, #72]
	.loc	62 102 13               @ src/main/cpp/RtmpClient.cpp:102:13
	adds	r0, r1, r2
	.loc	62 102 22               @ src/main/cpp/RtmpClient.cpp:102:22
	ldr	r1, [sp, #48]
	.loc	62 102 27               @ src/main/cpp/RtmpClient.cpp:102:27
	ldr	r2, [sp, #44]
	.loc	62 102 5                @ src/main/cpp/RtmpClient.cpp:102:5
	str	r3, [sp, #12]           @ 4-byte Spill
	bl	__aeabi_memcpy
	.loc	62 104 10 is_stmt 1     @ src/main/cpp/RtmpClient.cpp:104:10
	ldr	r1, [sp, #44]
	.loc	62 104 7 is_stmt 0      @ src/main/cpp/RtmpClient.cpp:104:7
	ldr	r2, [sp, #72]
	add	r1, r2
	str	r1, [sp, #72]
	.loc	62 107 5 is_stmt 1      @ src/main/cpp/RtmpClient.cpp:107:5
	ldr	r1, [sp, #32]
	.loc	62 107 11 is_stmt 0     @ src/main/cpp/RtmpClient.cpp:107:11
	ldr	r2, [sp, #72]
	adds	r3, r2, #1
	str	r3, [sp, #72]
	.loc	62 107 15               @ src/main/cpp/RtmpClient.cpp:107:15
	ldr	r3, [sp, #12]           @ 4-byte Reload
	strb	r3, [r1, r2]
	.loc	62 109 18 is_stmt 1     @ src/main/cpp/RtmpClient.cpp:109:18
	ldr	r1, [r7, #8]
	.loc	62 109 25 is_stmt 0     @ src/main/cpp/RtmpClient.cpp:109:25
	lsrs	r1, r1, #8
	.loc	62 109 5                @ src/main/cpp/RtmpClient.cpp:109:5
	ldr	r2, [sp, #32]
	.loc	62 109 11               @ src/main/cpp/RtmpClient.cpp:109:11
	ldr.w	r12, [sp, #72]
	add.w	lr, r12, #1
	str.w	lr, [sp, #72]
	.loc	62 109 15               @ src/main/cpp/RtmpClient.cpp:109:15
	strb.w	r1, [r2, r12]
	.loc	62 110 17 is_stmt 1     @ src/main/cpp/RtmpClient.cpp:110:17
	ldr	r1, [r7, #8]
	.loc	62 110 5 is_stmt 0      @ src/main/cpp/RtmpClient.cpp:110:5
	ldr	r2, [sp, #32]
	.loc	62 110 11               @ src/main/cpp/RtmpClient.cpp:110:11
	ldr.w	r12, [sp, #72]
	add.w	lr, r12, #1
	str.w	lr, [sp, #72]
	.loc	62 110 15               @ src/main/cpp/RtmpClient.cpp:110:15
	strb.w	r1, [r2, r12]
	.loc	62 111 13 is_stmt 1     @ src/main/cpp/RtmpClient.cpp:111:13
	ldr	r1, [sp, #32]
	.loc	62 111 18 is_stmt 0     @ src/main/cpp/RtmpClient.cpp:111:18
	ldr	r2, [sp, #72]
	.loc	62 111 13               @ src/main/cpp/RtmpClient.cpp:111:13
	add	r1, r2
	.loc	62 111 22               @ src/main/cpp/RtmpClient.cpp:111:22
	ldr	r2, [sp, #40]
	.loc	62 111 27               @ src/main/cpp/RtmpClient.cpp:111:27
	ldr.w	r12, [r7, #8]
	.loc	62 111 5                @ src/main/cpp/RtmpClient.cpp:111:5
	str	r0, [sp, #8]            @ 4-byte Spill
	mov	r0, r1
	mov	r1, r2
	mov	r2, r12
	bl	__aeabi_memcpy
	.loc	62 112 10 is_stmt 1     @ src/main/cpp/RtmpClient.cpp:112:10
	ldr	r1, [r7, #8]
	.loc	62 112 7 is_stmt 0      @ src/main/cpp/RtmpClient.cpp:112:7
	ldr	r2, [sp, #72]
	add	r1, r2
	str	r1, [sp, #72]
	.loc	62 114 5 is_stmt 1      @ src/main/cpp/RtmpClient.cpp:114:5
	ldr	r1, [sp, #36]
	movs	r2, #9
	.loc	62 114 26 is_stmt 0     @ src/main/cpp/RtmpClient.cpp:114:26
	strb	r2, [r1, #1]
	.loc	62 115 27 is_stmt 1     @ src/main/cpp/RtmpClient.cpp:115:27
	ldr	r1, [sp, #72]
	.loc	62 115 5 is_stmt 0      @ src/main/cpp/RtmpClient.cpp:115:5
	ldr	r2, [sp, #36]
	.loc	62 115 25               @ src/main/cpp/RtmpClient.cpp:115:25
	str	r1, [r2, #16]
	.loc	62 116 5 is_stmt 1      @ src/main/cpp/RtmpClient.cpp:116:5
	ldr	r1, [sp, #36]
	movs	r2, #4
	.loc	62 116 24 is_stmt 0     @ src/main/cpp/RtmpClient.cpp:116:24
	str	r2, [r1, #4]
	.loc	62 117 5 is_stmt 1      @ src/main/cpp/RtmpClient.cpp:117:5
	ldr	r1, [sp, #36]
	.loc	62 117 26 is_stmt 0     @ src/main/cpp/RtmpClient.cpp:117:26
	ldr	r2, [sp, #16]           @ 4-byte Reload
	str	r2, [r1, #8]
	.loc	62 118 5 is_stmt 1      @ src/main/cpp/RtmpClient.cpp:118:5
	ldr	r1, [sp, #36]
	.loc	62 118 31 is_stmt 0     @ src/main/cpp/RtmpClient.cpp:118:31
	strb	r2, [r1, #2]
	.loc	62 119 5 is_stmt 1      @ src/main/cpp/RtmpClient.cpp:119:5
	ldr	r1, [sp, #36]
	.loc	62 119 26 is_stmt 0     @ src/main/cpp/RtmpClient.cpp:119:26
	ldr	r3, [sp, #12]           @ 4-byte Reload
	strb	r3, [r1]
	.loc	62 120 29 is_stmt 1     @ src/main/cpp/RtmpClient.cpp:120:29
	ldr	r1, [sp, #28]           @ 4-byte Reload
	ldr.w	r12, [r1]
	.loc	62 120 36 is_stmt 0     @ src/main/cpp/RtmpClient.cpp:120:36
	ldr.w	r12, [r12, #24]
	.loc	62 120 5                @ src/main/cpp/RtmpClient.cpp:120:5
	ldr.w	lr, [sp, #36]
	.loc	62 120 27               @ src/main/cpp/RtmpClient.cpp:120:27
	str.w	r12, [lr, #12]
.Ltmp106:
	.loc	62 123 26 is_stmt 1     @ src/main/cpp/RtmpClient.cpp:123:26
	ldr.w	r12, [r1]
	.loc	62 123 9 is_stmt 0      @ src/main/cpp/RtmpClient.cpp:123:9
	str	r0, [sp, #4]            @ 4-byte Spill
	mov	r0, r12
	bl	RTMP_IsConnected
.Ltmp107:
	.loc	62 123 9                @ src/main/cpp/RtmpClient.cpp:123:9
	cmp	r0, #0
	beq	.LBB13_2
	b	.LBB13_1
.LBB13_1:
.Ltmp108:
	.loc	62 124 25 is_stmt 1     @ src/main/cpp/RtmpClient.cpp:124:25
	ldr	r0, [sp, #28]           @ 4-byte Reload
	ldr	r0, [r0]
	.loc	62 124 32 is_stmt 0     @ src/main/cpp/RtmpClient.cpp:124:32
	ldr	r1, [sp, #36]
	movs	r2, #1
	.loc	62 124 9                @ src/main/cpp/RtmpClient.cpp:124:9
	bl	RTMP_SendPacket
	.loc	62 125 5 is_stmt 1      @ src/main/cpp/RtmpClient.cpp:125:5
	b	.LBB13_2
.Ltmp109:
.LBB13_2:
	.loc	62 126 10               @ src/main/cpp/RtmpClient.cpp:126:10
	ldr	r0, [sp, #36]
	.loc	62 126 5 is_stmt 0      @ src/main/cpp/RtmpClient.cpp:126:5
	bl	free
	ldr	r0, .LCPI13_1
.LPC13_1:
	add	r0, pc
	ldr	r0, [r0]
	ldr	r0, [r0]
	ldr	r1, [sp, #76]
	cmp	r0, r1
	bne	.LBB13_4
	b	.LBB13_3
.LBB13_3:                               @ %SP_return
	.loc	62 0 5                  @ src/main/cpp/RtmpClient.cpp:0:5
	movs	r0, #0
	.loc	62 127 5 is_stmt 1      @ src/main/cpp/RtmpClient.cpp:127:5
	add	sp, #80
	pop	{r4, r6, r7, pc}
.LBB13_4:                               @ %CallStackCheckFailBlk
	.loc	62 0 0 is_stmt 0        @ src/main/cpp/RtmpClient.cpp:0:0
	bl	__stack_chk_fail
.Ltmp110:
	.p2align	2
@ %bb.5:
.LCPI13_0:
.Ltmp111:
	.long	__stack_chk_guard(GOT_PREL)-((.LPC13_0+4)-.Ltmp111)
.LCPI13_1:
.Ltmp112:
	.long	__stack_chk_guard(GOT_PREL)-((.LPC13_1+4)-.Ltmp112)
.Lfunc_end13:
	.size	_ZN10RtmpClient13sendSpsAndPpsEPhiS0_il, .Lfunc_end13-_ZN10RtmpClient13sendSpsAndPpsEPhiS0_il
	.cfi_endproc
	.fnend
                                        @ -- End function
	.section	.text._ZN10RtmpClient13SendDataFrameEdddddddb,"ax",%progbits
	.globl	_ZN10RtmpClient13SendDataFrameEdddddddb @ -- Begin function _ZN10RtmpClient13SendDataFrameEdddddddb
	.p2align	3
	.type	_ZN10RtmpClient13SendDataFrameEdddddddb,%function
	.code	16                      @ @_ZN10RtmpClient13SendDataFrameEdddddddb
	.thumb_func
_ZN10RtmpClient13SendDataFrameEdddddddb:
.Lfunc_begin14:
	.loc	62 139 0 is_stmt 1      @ src/main/cpp/RtmpClient.cpp:139:0
	.fnstart
	.cfi_startproc
@ %bb.0:
	.save	{r7, lr}
	push	{r7, lr}
	.cfi_def_cfa_offset 8
	.cfi_offset lr, -4
	.cfi_offset r7, -8
	.setfp	r7, sp
	mov	r7, sp
	.cfi_def_cfa_register r7
	.pad	#344
	sub	sp, #344
	vmov	d16, r2, r3
	ldr	r1, [r7, #56]
	vldr	d17, [r7, #48]
	vldr	d18, [r7, #40]
	vldr	d19, [r7, #32]
	vldr	d20, [r7, #24]
	vldr	d21, [r7, #16]
	vldr	d22, [r7, #8]
	ldr	r2, .LCPI14_1
.LPC14_0:
	add	r2, pc
	ldr	r2, [r2]
	ldr	r2, [r2]
	str	r2, [sp, #340]
	str	r0, [sp, #176]
	vstr	d16, [sp, #168]
	strb	r1, [r7, #-177]
	ldr	r0, [sp, #176]
.Ltmp125:
	.loc	62 141 19 prologue_end  @ src/main/cpp/RtmpClient.cpp:141:19
	vldr	d16, [r7, #16]
	vldr	d23, .LCPI14_0
	vdiv.f64	d16, d16, d23
	vstr	d16, [r7, #16]
	.loc	62 142 19               @ src/main/cpp/RtmpClient.cpp:142:19
	vldr	d16, [r7, #32]
	vdiv.f64	d16, d16, d23
	vstr	d16, [r7, #32]
	.loc	62 145 25               @ src/main/cpp/RtmpClient.cpp:145:25
	vldr	d16, [sp, #168]
	.loc	62 146 25               @ src/main/cpp/RtmpClient.cpp:146:25
	vldr	d23, [r7, #8]
	.loc	62 147 25               @ src/main/cpp/RtmpClient.cpp:147:25
	vldr	d24, [r7, #16]
	.loc	62 148 25               @ src/main/cpp/RtmpClient.cpp:148:25
	vldr	d25, [r7, #24]
	.loc	62 150 25               @ src/main/cpp/RtmpClient.cpp:150:25
	vldr	d26, [r7, #32]
	.loc	62 151 25               @ src/main/cpp/RtmpClient.cpp:151:25
	vldr	d27, [r7, #40]
	.loc	62 152 25               @ src/main/cpp/RtmpClient.cpp:152:25
	vldr	d28, [r7, #48]
	.loc	62 144 16               @ src/main/cpp/RtmpClient.cpp:144:16
	ldrb	r1, [r7, #-177]
	mov	r2, sp
	movs	r3, #0
	str	r3, [r2, #76]
	str	r3, [r2, #72]
	movw	r12, #0
	movt	r12, #16420
	str.w	r12, [r2, #68]
	str	r3, [r2, #64]
	movw	r12, #0
	movt	r12, #16412
	str.w	r12, [r2, #36]
	str	r3, [r2, #32]
	and	r1, r1, #1
	str	r1, [r2, #80]
	vstr	d28, [r2, #56]
	vstr	d27, [r2, #48]
	vstr	d26, [r2, #40]
	vstr	d25, [r2, #24]
	vstr	d24, [r2, #16]
	vstr	d23, [r2, #8]
	vstr	d16, [r2]
	vmov.i32	d16, #0x0
	vmov	r2, r3, d16
	add	r1, sp, #192
	str	r0, [sp, #152]          @ 4-byte Spill
	mov	r0, r1
	vstr	d17, [sp, #144]         @ 8-byte Spill
	vstr	d18, [sp, #136]         @ 8-byte Spill
	vstr	d19, [sp, #128]         @ 8-byte Spill
	vstr	d20, [sp, #120]         @ 8-byte Spill
	vstr	d21, [sp, #112]         @ 8-byte Spill
	vstr	d22, [sp, #104]         @ 8-byte Spill
	str	r1, [sp, #100]          @ 4-byte Spill
	bl	_ZN10OnMetaDataC1Edddddddddddb
.Ltmp113:
	.loc	62 157 49               @ src/main/cpp/RtmpClient.cpp:157:49
	ldr	r0, [sp, #100]          @ 4-byte Reload
	bl	_ZN10OnMetaData13GetBufferSizeEv
.Ltmp114:
	str	r0, [sp, #96]           @ 4-byte Spill
	b	.LBB14_1
.LBB14_1:
.Ltmp115:
	.loc	62 157 12 is_stmt 0     @ src/main/cpp/RtmpClient.cpp:157:12
	mov	r0, sp
	add	r1, sp, #192
	str	r1, [r0]
	add	r0, sp, #180
	movs	r1, #18
	movs	r3, #0
	ldr	r2, [sp, #96]           @ 4-byte Reload
	bl	_ZN6FLVTagC1EhjjR11IFLVTagData
.Ltmp116:
	b	.LBB14_2
.LBB14_2:
	.loc	62 159 22 is_stmt 1     @ src/main/cpp/RtmpClient.cpp:159:22
	ldr	r0, [sp, #152]          @ 4-byte Reload
	ldr	r0, [r0]
.Ltmp118:
	add	r1, sp, #180
	.loc	62 159 36 is_stmt 0     @ src/main/cpp/RtmpClient.cpp:159:36
	str	r0, [sp, #92]           @ 4-byte Spill
	mov	r0, r1
	bl	_ZN6FLVTag9GetBufferEv
.Ltmp119:
	str	r0, [sp, #88]           @ 4-byte Spill
	b	.LBB14_3
.LBB14_3:
.Ltmp120:
	.loc	62 0 36                 @ src/main/cpp/RtmpClient.cpp:0:36
	add	r0, sp, #180
	.loc	62 159 56               @ src/main/cpp/RtmpClient.cpp:159:56
	bl	_ZN6FLVTag7GetSizeEv
.Ltmp121:
	str	r0, [sp, #84]           @ 4-byte Spill
	b	.LBB14_4
.LBB14_4:
.Ltmp122:
	.loc	62 159 5                @ src/main/cpp/RtmpClient.cpp:159:5
	ldr	r0, [sp, #92]           @ 4-byte Reload
	ldr	r1, [sp, #88]           @ 4-byte Reload
	ldr	r2, [sp, #84]           @ 4-byte Reload
	bl	RTMP_Write
.Ltmp123:
	b	.LBB14_5
.LBB14_5:
	.loc	62 0 5                  @ src/main/cpp/RtmpClient.cpp:0:5
	add	r0, sp, #180
	.loc	62 162 1 is_stmt 1      @ src/main/cpp/RtmpClient.cpp:162:1
	bl	_ZN6FLVTagD1Ev
	add	r0, sp, #192
	bl	_ZN10OnMetaDataD1Ev
	ldr	r0, .LCPI14_2
.LPC14_1:
	add	r0, pc
	ldr	r0, [r0]
	ldr	r0, [r0]
	ldr	r1, [sp, #340]
	cmp	r0, r1
	bne	.LBB14_11
	b	.LBB14_6
.LBB14_6:                               @ %SP_return
	.loc	62 0 1 is_stmt 0        @ src/main/cpp/RtmpClient.cpp:0:1
	movs	r0, #0
	.loc	62 162 1                @ src/main/cpp/RtmpClient.cpp:162:1
	add	sp, #344
	pop	{r7, pc}
.LBB14_7:
.Ltmp117:
	str	r0, [sp, #160]
	str	r1, [sp, #156]
	b	.LBB14_9
.LBB14_8:
.Ltmp124:
	str	r0, [sp, #160]
	str	r1, [sp, #156]
	add	r0, sp, #180
	bl	_ZN6FLVTagD1Ev
	b	.LBB14_9
.LBB14_9:
	.loc	62 0 1                  @ src/main/cpp/RtmpClient.cpp:0:1
	add	r0, sp, #192
	.loc	62 162 1                @ src/main/cpp/RtmpClient.cpp:162:1
	bl	_ZN10OnMetaDataD1Ev
	b	.LBB14_10
.LBB14_10:
	ldr	r0, [sp, #160]
	bl	_Unwind_Resume
.LBB14_11:                              @ %CallStackCheckFailBlk
	.loc	62 0 0                  @ src/main/cpp/RtmpClient.cpp:0:0
	bl	__stack_chk_fail
.Ltmp126:
	.p2align	3
@ %bb.12:
.LCPI14_0:
	.long	0                       @ double 1000
	.long	1083129856
.LCPI14_1:
.Ltmp127:
	.long	__stack_chk_guard(GOT_PREL)-((.LPC14_0+4)-.Ltmp127)
.LCPI14_2:
.Ltmp128:
	.long	__stack_chk_guard(GOT_PREL)-((.LPC14_1+4)-.Ltmp128)
.Lfunc_end14:
	.size	_ZN10RtmpClient13SendDataFrameEdddddddb, .Lfunc_end14-_ZN10RtmpClient13SendDataFrameEdddddddb
	.cfi_endproc
	.globl	__gxx_personality_v0
	.personality __gxx_personality_v0
	.handlerdata
	.p2align	2
GCC_except_table14:
.Lexception3:
	.byte	255                     @ @LPStart Encoding = omit
	.byte	255                     @ @TType Encoding = omit
	.byte	1                       @ Call site Encoding = uleb128
	.uleb128 .Lcst_end3-.Lcst_begin3
.Lcst_begin3:
	.uleb128 .Lfunc_begin14-.Lfunc_begin14 @ >> Call Site 1 <<
	.uleb128 .Ltmp113-.Lfunc_begin14 @   Call between .Lfunc_begin14 and .Ltmp113
	.byte	0                       @     has no landing pad
	.byte	0                       @   On action: cleanup
	.uleb128 .Ltmp113-.Lfunc_begin14 @ >> Call Site 2 <<
	.uleb128 .Ltmp116-.Ltmp113      @   Call between .Ltmp113 and .Ltmp116
	.uleb128 .Ltmp117-.Lfunc_begin14 @     jumps to .Ltmp117
	.byte	0                       @   On action: cleanup
	.uleb128 .Ltmp118-.Lfunc_begin14 @ >> Call Site 3 <<
	.uleb128 .Ltmp123-.Ltmp118      @   Call between .Ltmp118 and .Ltmp123
	.uleb128 .Ltmp124-.Lfunc_begin14 @     jumps to .Ltmp124
	.byte	0                       @   On action: cleanup
	.uleb128 .Ltmp123-.Lfunc_begin14 @ >> Call Site 4 <<
	.uleb128 .Lfunc_end14-.Ltmp123  @   Call between .Ltmp123 and .Lfunc_end14
	.byte	0                       @     has no landing pad
	.byte	0                       @   On action: cleanup
.Lcst_end3:
	.p2align	2
	.fnend
                                        @ -- End function
	.section	.text._ZN10OnMetaData13GetBufferSizeEv,"axG",%progbits,_ZN10OnMetaData13GetBufferSizeEv,comdat
	.weak	_ZN10OnMetaData13GetBufferSizeEv @ -- Begin function _ZN10OnMetaData13GetBufferSizeEv
	.p2align	1
	.type	_ZN10OnMetaData13GetBufferSizeEv,%function
	.code	16                      @ @_ZN10OnMetaData13GetBufferSizeEv
	.thumb_func
_ZN10OnMetaData13GetBufferSizeEv:
.Lfunc_begin15:
	.loc	17 86 0 is_stmt 1       @ src/main/cpp/OnMetaData.h:86:0
	.fnstart
	.cfi_startproc
@ %bb.0:
	.pad	#4
	sub	sp, #4
	.cfi_def_cfa_offset 4
	str	r0, [sp]
	ldr	r0, [sp]
.Ltmp129:
	.loc	17 87 16 prologue_end   @ src/main/cpp/OnMetaData.h:87:16
	ldr.w	r0, [r0, #144]
	.loc	17 87 9 is_stmt 0       @ src/main/cpp/OnMetaData.h:87:9
	add	sp, #4
	bx	lr
.Ltmp130:
.Lfunc_end15:
	.size	_ZN10OnMetaData13GetBufferSizeEv, .Lfunc_end15-_ZN10OnMetaData13GetBufferSizeEv
	.cfi_endproc
	.fnend
                                        @ -- End function
	.section	.text._ZN6FLVTag9GetBufferEv,"axG",%progbits,_ZN6FLVTag9GetBufferEv,comdat
	.weak	_ZN6FLVTag9GetBufferEv  @ -- Begin function _ZN6FLVTag9GetBufferEv
	.p2align	1
	.type	_ZN6FLVTag9GetBufferEv,%function
	.code	16                      @ @_ZN6FLVTag9GetBufferEv
	.thumb_func
_ZN6FLVTag9GetBufferEv:
.Lfunc_begin16:
	.loc	27 27 0 is_stmt 1       @ src/main/cpp/FLVTag.h:27:0
	.fnstart
	.cfi_startproc
@ %bb.0:
	.pad	#4
	sub	sp, #4
	.cfi_def_cfa_offset 4
	str	r0, [sp]
	ldr	r0, [sp]
.Ltmp131:
	.loc	27 28 16 prologue_end   @ src/main/cpp/FLVTag.h:28:16
	ldr	r0, [r0, #4]
	.loc	27 28 9 is_stmt 0       @ src/main/cpp/FLVTag.h:28:9
	add	sp, #4
	bx	lr
.Ltmp132:
.Lfunc_end16:
	.size	_ZN6FLVTag9GetBufferEv, .Lfunc_end16-_ZN6FLVTag9GetBufferEv
	.cfi_endproc
	.fnend
                                        @ -- End function
	.section	.text._ZN6FLVTag7GetSizeEv,"axG",%progbits,_ZN6FLVTag7GetSizeEv,comdat
	.weak	_ZN6FLVTag7GetSizeEv    @ -- Begin function _ZN6FLVTag7GetSizeEv
	.p2align	1
	.type	_ZN6FLVTag7GetSizeEv,%function
	.code	16                      @ @_ZN6FLVTag7GetSizeEv
	.thumb_func
_ZN6FLVTag7GetSizeEv:
.Lfunc_begin17:
	.loc	27 31 0 is_stmt 1       @ src/main/cpp/FLVTag.h:31:0
	.fnstart
	.cfi_startproc
@ %bb.0:
	.pad	#4
	sub	sp, #4
	.cfi_def_cfa_offset 4
	str	r0, [sp]
	ldr	r0, [sp]
.Ltmp133:
	.loc	27 32 16 prologue_end   @ src/main/cpp/FLVTag.h:32:16
	ldr	r0, [r0, #8]
	.loc	27 32 9 is_stmt 0       @ src/main/cpp/FLVTag.h:32:9
	add	sp, #4
	bx	lr
.Ltmp134:
.Lfunc_end17:
	.size	_ZN6FLVTag7GetSizeEv, .Lfunc_end17-_ZN6FLVTag7GetSizeEv
	.cfi_endproc
	.fnend
                                        @ -- End function
	.section	.text._ZN10RtmpClient13sendVideoDataEPhil,"ax",%progbits
	.globl	_ZN10RtmpClient13sendVideoDataEPhil @ -- Begin function _ZN10RtmpClient13sendVideoDataEPhil
	.p2align	2
	.type	_ZN10RtmpClient13sendVideoDataEPhil,%function
	.code	16                      @ @_ZN10RtmpClient13sendVideoDataEPhil
	.thumb_func
_ZN10RtmpClient13sendVideoDataEPhil:
.Lfunc_begin18:
	.loc	62 165 0 is_stmt 1      @ src/main/cpp/RtmpClient.cpp:165:0
	.fnstart
	.cfi_startproc
@ %bb.0:
	.save	{r4, r6, r7, lr}
	push	{r4, r6, r7, lr}
	.cfi_def_cfa_offset 16
	.cfi_offset lr, -4
	.cfi_offset r7, -8
	.cfi_offset r6, -12
	.cfi_offset r4, -16
	.setfp	r7, sp, #8
	add	r7, sp, #8
	.cfi_def_cfa r7, 8
	.pad	#96
	sub	sp, #96
	ldr	r4, .LCPI18_0
.LPC18_0:
	add	r4, pc
	ldr.w	r12, [r4]
	ldr.w	r12, [r12]
	str.w	r12, [sp, #92]
	str	r0, [sp, #68]
	str	r1, [sp, #64]
	str	r2, [sp, #60]
	str	r3, [sp, #56]
	ldr	r0, [sp, #68]
.Ltmp138:
	.loc	62 166 54 prologue_end  @ src/main/cpp/RtmpClient.cpp:166:54
	ldr	r1, [sp, #64]
	.loc	62 166 59 is_stmt 0     @ src/main/cpp/RtmpClient.cpp:166:59
	ldr	r2, [sp, #60]
	.loc	62 166 28               @ src/main/cpp/RtmpClient.cpp:166:28
	str	r0, [sp, #24]           @ 4-byte Spill
	mov	r0, r1
	mov	r1, r2
	bl	_ZN10H264Parser13FindStartCodeEPhi
	.loc	62 166 10               @ src/main/cpp/RtmpClient.cpp:166:10
	str	r0, [sp, #52]
.Ltmp139:
	.loc	62 167 9 is_stmt 1      @ src/main/cpp/RtmpClient.cpp:167:9
	ldr	r0, [sp, #52]
.Ltmp140:
	.loc	62 167 9 is_stmt 0      @ src/main/cpp/RtmpClient.cpp:167:9
	cmp	r0, #1
	blt	.LBB18_2
	b	.LBB18_1
.LBB18_1:
.Ltmp141:
	.loc	62 169 16 is_stmt 1     @ src/main/cpp/RtmpClient.cpp:169:16
	ldr	r0, [sp, #52]
	.loc	62 169 13 is_stmt 0     @ src/main/cpp/RtmpClient.cpp:169:13
	ldr	r1, [sp, #64]
	add	r0, r1
	str	r0, [sp, #64]
	.loc	62 170 16 is_stmt 1     @ src/main/cpp/RtmpClient.cpp:170:16
	ldr	r0, [sp, #52]
	.loc	62 170 13 is_stmt 0     @ src/main/cpp/RtmpClient.cpp:170:13
	ldr	r1, [sp, #60]
	subs	r0, r1, r0
	str	r0, [sp, #60]
	.loc	62 171 51 is_stmt 1     @ src/main/cpp/RtmpClient.cpp:171:51
	ldr	r0, [sp, #64]
	.loc	62 171 56 is_stmt 0     @ src/main/cpp/RtmpClient.cpp:171:56
	ldr	r1, [sp, #60]
	.loc	62 171 9                @ src/main/cpp/RtmpClient.cpp:171:9
	bl	_ZN10H264Parser29RemoveEmulationPreventionCodeEPhi
	.loc	62 172 5 is_stmt 1      @ src/main/cpp/RtmpClient.cpp:172:5
	b	.LBB18_2
.Ltmp142:
.LBB18_2:
	.loc	62 173 23               @ src/main/cpp/RtmpClient.cpp:173:23
	ldr	r0, [sp, #64]
	ldrb	r0, [r0]
	.loc	62 173 10 is_stmt 0     @ src/main/cpp/RtmpClient.cpp:173:10
	strb	r0, [r7, #-53]
	.loc	62 174 13 is_stmt 1     @ src/main/cpp/RtmpClient.cpp:174:13
	ldrb	r0, [r7, #-53]
	.loc	62 174 24 is_stmt 0     @ src/main/cpp/RtmpClient.cpp:174:24
	and	r0, r0, #31
	.loc	62 174 5                @ src/main/cpp/RtmpClient.cpp:174:5
	subs	r0, #1
	mov	r1, r0
	cmp	r0, #7
	str	r1, [sp, #20]           @ 4-byte Spill
	bhi	.LBB18_11
@ %bb.3:
	.loc	62 0 5                  @ src/main/cpp/RtmpClient.cpp:0:5
	ldr	r1, [sp, #20]           @ 4-byte Reload
.LCPI18_10:
	tbb	[pc, r1]
@ %bb.4:
.LJTI18_0:
	.byte	(.LBB18_10-(.LCPI18_10+4))/2
	.byte	(.LBB18_11-(.LCPI18_10+4))/2
	.byte	(.LBB18_11-(.LCPI18_10+4))/2
	.byte	(.LBB18_11-(.LCPI18_10+4))/2
	.byte	(.LBB18_9-(.LCPI18_10+4))/2
	.byte	(.LBB18_11-(.LCPI18_10+4))/2
	.byte	(.LBB18_5-(.LCPI18_10+4))/2
	.byte	(.LBB18_6-(.LCPI18_10+4))/2
	.p2align	1
.LBB18_5:
.Ltmp143:
	.loc	62 176 30 is_stmt 1     @ src/main/cpp/RtmpClient.cpp:176:30
	ldr	r1, [sp, #64]
	.loc	62 176 35 is_stmt 0     @ src/main/cpp/RtmpClient.cpp:176:35
	ldr	r2, [sp, #60]
	.loc	62 176 40               @ src/main/cpp/RtmpClient.cpp:176:40
	ldr	r3, [sp, #56]
	.loc	62 176 19               @ src/main/cpp/RtmpClient.cpp:176:19
	ldr	r0, [sp, #24]           @ 4-byte Reload
	bl	_ZN10RtmpClient10SendNALSPSEPhil
	movs	r1, #0
	.loc	62 177 13 is_stmt 1     @ src/main/cpp/RtmpClient.cpp:177:13
	str	r1, [sp, #72]
	b	.LBB18_19
.Ltmp144:
.LBB18_6:
	.loc	62 180 99               @ src/main/cpp/RtmpClient.cpp:180:99
	ldr	r1, [sp, #64]
	.loc	62 180 104 is_stmt 0    @ src/main/cpp/RtmpClient.cpp:180:104
	ldr	r2, [sp, #60]
	add	r0, sp, #80
	.loc	62 180 80               @ src/main/cpp/RtmpClient.cpp:180:80
	str	r0, [sp, #16]           @ 4-byte Spill
	bl	_ZN7HexUtil9Bytes2HexEPhi
	.loc	62 180 109              @ src/main/cpp/RtmpClient.cpp:180:109
	ldr	r0, [sp, #16]           @ 4-byte Reload
	bl	_ZNKSt6__ndk112basic_stringIcNS_11char_traitsIcEENS_9allocatorIcEEE5c_strEv
.Ltmp135:
	.loc	62 180 13               @ src/main/cpp/RtmpClient.cpp:180:13
	ldr	r1, .LCPI18_1
.LPC18_1:
	add	r1, pc
	ldr	r2, .LCPI18_2
.LPC18_2:
	add	r2, pc
	movs	r3, #4
	str	r0, [sp, #12]           @ 4-byte Spill
	mov	r0, r3
	ldr	r3, [sp, #12]           @ 4-byte Reload
	bl	__android_log_print
.Ltmp136:
	b	.LBB18_7
.LBB18_7:
	.loc	62 0 13                 @ src/main/cpp/RtmpClient.cpp:0:13
	add	r0, sp, #80
	.loc	62 180 13               @ src/main/cpp/RtmpClient.cpp:180:13
	bl	_ZNSt6__ndk112basic_stringIcNS_11char_traitsIcEENS_9allocatorIcEEED2Ev
	.loc	62 181 13 is_stmt 1     @ src/main/cpp/RtmpClient.cpp:181:13
	b	.LBB18_11
.LBB18_8:
.Ltmp137:
	.loc	62 246 1                @ src/main/cpp/RtmpClient.cpp:246:1
	str	r0, [sp, #44]
	str	r1, [sp, #40]
	add	r0, sp, #80
	.loc	62 180 13               @ src/main/cpp/RtmpClient.cpp:180:13
	bl	_ZNSt6__ndk112basic_stringIcNS_11char_traitsIcEENS_9allocatorIcEEED2Ev
	b	.LBB18_21
.Ltmp145:
.LBB18_9:
	.loc	62 184 13               @ src/main/cpp/RtmpClient.cpp:184:13
	ldr	r1, .LCPI18_3
.LPC18_3:
	add	r1, pc
	ldr	r2, .LCPI18_4
.LPC18_4:
	add	r2, pc
	movs	r0, #4
	bl	__android_log_print
	.loc	62 185 13               @ src/main/cpp/RtmpClient.cpp:185:13
	b	.LBB18_11
.Ltmp146:
.LBB18_10:
	.loc	62 188 13               @ src/main/cpp/RtmpClient.cpp:188:13
	ldr	r1, .LCPI18_5
.LPC18_5:
	add	r1, pc
	ldr	r2, .LCPI18_6
.LPC18_6:
	add	r2, pc
	movs	r0, #4
	bl	__android_log_print
.Ltmp147:
	.loc	62 190 5                @ src/main/cpp/RtmpClient.cpp:190:5
	b	.LBB18_11
.Ltmp148:
.LBB18_11:
	.loc	62 0 5 is_stmt 0        @ src/main/cpp/RtmpClient.cpp:0:5
	movs	r0, #2
	.loc	62 202 10 is_stmt 1     @ src/main/cpp/RtmpClient.cpp:202:10
	str	r0, [sp, #36]
.Ltmp149:
	.loc	62 203 10               @ src/main/cpp/RtmpClient.cpp:203:10
	ldrb	r0, [r7, #-53]
	.loc	62 203 21 is_stmt 0     @ src/main/cpp/RtmpClient.cpp:203:21
	and	r0, r0, #31
.Ltmp150:
	.loc	62 203 9                @ src/main/cpp/RtmpClient.cpp:203:9
	cmp	r0, #5
	bne	.LBB18_13
	b	.LBB18_12
.LBB18_12:
	.loc	62 0 9                  @ src/main/cpp/RtmpClient.cpp:0:9
	movs	r0, #1
.Ltmp151:
	.loc	62 204 20 is_stmt 1     @ src/main/cpp/RtmpClient.cpp:204:20
	str	r0, [sp, #36]
	.loc	62 205 5                @ src/main/cpp/RtmpClient.cpp:205:5
	b	.LBB18_14
.Ltmp152:
.LBB18_13:
	.loc	62 0 5 is_stmt 0        @ src/main/cpp/RtmpClient.cpp:0:5
	movs	r0, #2
.Ltmp153:
	.loc	62 206 20 is_stmt 1     @ src/main/cpp/RtmpClient.cpp:206:20
	str	r0, [sp, #36]
	b	.LBB18_14
.Ltmp154:
.LBB18_14:
	.loc	62 0 20 is_stmt 0       @ src/main/cpp/RtmpClient.cpp:0:20
	movs	r0, #7
	.loc	62 208 10 is_stmt 1     @ src/main/cpp/RtmpClient.cpp:208:10
	str	r0, [sp, #32]
	movs	r0, #1
	.loc	62 209 10               @ src/main/cpp/RtmpClient.cpp:209:10
	str	r0, [sp, #28]
	movs	r0, #32
	.loc	62 211 20               @ src/main/cpp/RtmpClient.cpp:211:20
	bl	_Znwj
	.loc	62 211 24 is_stmt 0     @ src/main/cpp/RtmpClient.cpp:211:24
	vmov.i32	q8, #0x0
	mov	r1, r0
	vst1.64	{d16, d17}, [r1]!
	vst1.64	{d16, d17}, [r1]
	.loc	62 211 11               @ src/main/cpp/RtmpClient.cpp:211:11
	str	r0, [sp, #76]
	.loc	62 212 22 is_stmt 1     @ src/main/cpp/RtmpClient.cpp:212:22
	ldr	r0, [sp, #76]
	.loc	62 212 30 is_stmt 0     @ src/main/cpp/RtmpClient.cpp:212:30
	ldr	r1, [sp, #60]
	.loc	62 212 34               @ src/main/cpp/RtmpClient.cpp:212:34
	adds	r1, #9
	.loc	62 212 5                @ src/main/cpp/RtmpClient.cpp:212:5
	bl	RTMPPacket_Alloc
	.loc	62 213 22 is_stmt 1     @ src/main/cpp/RtmpClient.cpp:213:22
	ldr	r1, [sp, #76]
	.loc	62 213 5 is_stmt 0      @ src/main/cpp/RtmpClient.cpp:213:5
	str	r0, [sp, #8]            @ 4-byte Spill
	mov	r0, r1
	bl	RTMPPacket_Reset
	.loc	62 215 25 is_stmt 1     @ src/main/cpp/RtmpClient.cpp:215:25
	ldr	r0, [sp, #36]
	.loc	62 215 43 is_stmt 0     @ src/main/cpp/RtmpClient.cpp:215:43
	ldr	r1, [sp, #32]
	.loc	62 215 41               @ src/main/cpp/RtmpClient.cpp:215:41
	orr.w	r0, r1, r0, lsl #4
	.loc	62 215 5                @ src/main/cpp/RtmpClient.cpp:215:5
	ldr	r1, [sp, #76]
	.loc	62 215 13               @ src/main/cpp/RtmpClient.cpp:215:13
	ldr	r1, [r1, #28]
	.loc	62 215 23               @ src/main/cpp/RtmpClient.cpp:215:23
	strb	r0, [r1]
	.loc	62 216 25 is_stmt 1     @ src/main/cpp/RtmpClient.cpp:216:25
	ldr	r0, [sp, #28]
	.loc	62 216 5 is_stmt 0      @ src/main/cpp/RtmpClient.cpp:216:5
	ldr	r1, [sp, #76]
	.loc	62 216 13               @ src/main/cpp/RtmpClient.cpp:216:13
	ldr	r1, [r1, #28]
	.loc	62 216 23               @ src/main/cpp/RtmpClient.cpp:216:23
	strb	r0, [r1, #1]
	.loc	62 217 5 is_stmt 1      @ src/main/cpp/RtmpClient.cpp:217:5
	ldr	r0, [sp, #76]
	.loc	62 217 13 is_stmt 0     @ src/main/cpp/RtmpClient.cpp:217:13
	ldr	r0, [r0, #28]
	movs	r1, #0
	.loc	62 217 23               @ src/main/cpp/RtmpClient.cpp:217:23
	strb	r1, [r0, #2]
	.loc	62 218 5 is_stmt 1      @ src/main/cpp/RtmpClient.cpp:218:5
	ldr	r0, [sp, #76]
	.loc	62 218 13 is_stmt 0     @ src/main/cpp/RtmpClient.cpp:218:13
	ldr	r0, [r0, #28]
	.loc	62 218 23               @ src/main/cpp/RtmpClient.cpp:218:23
	strb	r1, [r0, #3]
	.loc	62 219 5 is_stmt 1      @ src/main/cpp/RtmpClient.cpp:219:5
	ldr	r0, [sp, #76]
	.loc	62 219 13 is_stmt 0     @ src/main/cpp/RtmpClient.cpp:219:13
	ldr	r0, [r0, #28]
	.loc	62 219 23               @ src/main/cpp/RtmpClient.cpp:219:23
	strb	r1, [r0, #4]
	.loc	62 221 26 is_stmt 1     @ src/main/cpp/RtmpClient.cpp:221:26
	ldrb.w	r0, [sp, #63]
	.loc	62 221 5 is_stmt 0      @ src/main/cpp/RtmpClient.cpp:221:5
	ldr	r2, [sp, #76]
	.loc	62 221 13               @ src/main/cpp/RtmpClient.cpp:221:13
	ldr	r2, [r2, #28]
	.loc	62 221 23               @ src/main/cpp/RtmpClient.cpp:221:23
	strb	r0, [r2, #5]
	.loc	62 222 26 is_stmt 1     @ src/main/cpp/RtmpClient.cpp:222:26
	ldrh.w	r0, [sp, #62]
	.loc	62 222 5 is_stmt 0      @ src/main/cpp/RtmpClient.cpp:222:5
	ldr	r2, [sp, #76]
	.loc	62 222 13               @ src/main/cpp/RtmpClient.cpp:222:13
	ldr	r2, [r2, #28]
	.loc	62 222 23               @ src/main/cpp/RtmpClient.cpp:222:23
	strb	r0, [r2, #6]
	.loc	62 223 26 is_stmt 1     @ src/main/cpp/RtmpClient.cpp:223:26
	ldr	r0, [sp, #60]
	.loc	62 223 30 is_stmt 0     @ src/main/cpp/RtmpClient.cpp:223:30
	lsrs	r0, r0, #8
	.loc	62 223 5                @ src/main/cpp/RtmpClient.cpp:223:5
	ldr	r2, [sp, #76]
	.loc	62 223 13               @ src/main/cpp/RtmpClient.cpp:223:13
	ldr	r2, [r2, #28]
	.loc	62 223 23               @ src/main/cpp/RtmpClient.cpp:223:23
	strb	r0, [r2, #7]
	.loc	62 224 26 is_stmt 1     @ src/main/cpp/RtmpClient.cpp:224:26
	ldr	r0, [sp, #60]
	.loc	62 224 5 is_stmt 0      @ src/main/cpp/RtmpClient.cpp:224:5
	ldr	r2, [sp, #76]
	.loc	62 224 13               @ src/main/cpp/RtmpClient.cpp:224:13
	ldr	r2, [r2, #28]
	.loc	62 224 23               @ src/main/cpp/RtmpClient.cpp:224:23
	strb	r0, [r2, #8]
	.loc	62 227 5 is_stmt 1      @ src/main/cpp/RtmpClient.cpp:227:5
	ldr	r0, [sp, #76]
	.loc	62 227 31 is_stmt 0     @ src/main/cpp/RtmpClient.cpp:227:31
	strb	r1, [r0, #2]
	.loc	62 228 5 is_stmt 1      @ src/main/cpp/RtmpClient.cpp:228:5
	ldr	r0, [sp, #76]
	movs	r2, #9
	.loc	62 228 26 is_stmt 0     @ src/main/cpp/RtmpClient.cpp:228:26
	strb	r2, [r0, #1]
	.loc	62 229 29 is_stmt 1     @ src/main/cpp/RtmpClient.cpp:229:29
	ldr	r0, [sp, #24]           @ 4-byte Reload
	ldr	r2, [r0]
	.loc	62 229 36 is_stmt 0     @ src/main/cpp/RtmpClient.cpp:229:36
	ldr	r2, [r2, #24]
	.loc	62 229 5                @ src/main/cpp/RtmpClient.cpp:229:5
	ldr	r3, [sp, #76]
	.loc	62 229 27               @ src/main/cpp/RtmpClient.cpp:229:27
	str	r2, [r3, #12]
	.loc	62 230 5 is_stmt 1      @ src/main/cpp/RtmpClient.cpp:230:5
	ldr	r2, [sp, #76]
	movs	r3, #4
	.loc	62 230 24 is_stmt 0     @ src/main/cpp/RtmpClient.cpp:230:24
	str	r3, [r2, #4]
	.loc	62 231 5 is_stmt 1      @ src/main/cpp/RtmpClient.cpp:231:5
	ldr	r2, [sp, #76]
	.loc	62 231 26 is_stmt 0     @ src/main/cpp/RtmpClient.cpp:231:26
	strb	r1, [r2]
	.loc	62 232 28 is_stmt 1     @ src/main/cpp/RtmpClient.cpp:232:28
	ldr	r1, [sp, #56]
	.loc	62 232 5 is_stmt 0      @ src/main/cpp/RtmpClient.cpp:232:5
	ldr	r2, [sp, #76]
	.loc	62 232 26               @ src/main/cpp/RtmpClient.cpp:232:26
	str	r1, [r2, #8]
	.loc	62 233 27 is_stmt 1     @ src/main/cpp/RtmpClient.cpp:233:27
	ldr	r1, [sp, #60]
	.loc	62 233 31 is_stmt 0     @ src/main/cpp/RtmpClient.cpp:233:31
	adds	r1, #9
	.loc	62 233 5                @ src/main/cpp/RtmpClient.cpp:233:5
	ldr	r2, [sp, #76]
	.loc	62 233 25               @ src/main/cpp/RtmpClient.cpp:233:25
	str	r1, [r2, #16]
	.loc	62 235 13 is_stmt 1     @ src/main/cpp/RtmpClient.cpp:235:13
	ldr	r1, [sp, #76]
	.loc	62 235 21 is_stmt 0     @ src/main/cpp/RtmpClient.cpp:235:21
	ldr	r1, [r1, #28]
	.loc	62 235 13               @ src/main/cpp/RtmpClient.cpp:235:13
	add.w	r0, r1, #9
	.loc	62 235 32               @ src/main/cpp/RtmpClient.cpp:235:32
	ldr	r1, [sp, #64]
	.loc	62 235 37               @ src/main/cpp/RtmpClient.cpp:235:37
	ldr	r2, [sp, #60]
	.loc	62 235 5                @ src/main/cpp/RtmpClient.cpp:235:5
	bl	__aeabi_memcpy
.Ltmp155:
	.loc	62 236 26 is_stmt 1     @ src/main/cpp/RtmpClient.cpp:236:26
	ldr	r1, [sp, #24]           @ 4-byte Reload
	ldr	r2, [r1]
	.loc	62 236 9 is_stmt 0      @ src/main/cpp/RtmpClient.cpp:236:9
	str	r0, [sp, #4]            @ 4-byte Spill
	mov	r0, r2
	bl	RTMP_IsConnected
.Ltmp156:
	.loc	62 236 9                @ src/main/cpp/RtmpClient.cpp:236:9
	cmp	r0, #0
	beq	.LBB18_18
	b	.LBB18_15
.LBB18_15:
.Ltmp157:
	.loc	62 237 25 is_stmt 1     @ src/main/cpp/RtmpClient.cpp:237:25
	ldr	r0, [sp, #24]           @ 4-byte Reload
	ldr	r0, [r0]
	.loc	62 237 32 is_stmt 0     @ src/main/cpp/RtmpClient.cpp:237:32
	ldr	r1, [sp, #76]
	movs	r2, #1
	.loc	62 237 9                @ src/main/cpp/RtmpClient.cpp:237:9
	bl	RTMP_SendPacket
.Ltmp158:
	.loc	62 238 13 is_stmt 1     @ src/main/cpp/RtmpClient.cpp:238:13
	ldr	r1, [sp, #24]           @ 4-byte Reload
	ldrb	r2, [r1, #20]
.Ltmp159:
	.loc	62 238 13 is_stmt 0     @ src/main/cpp/RtmpClient.cpp:238:13
	lsls	r2, r2, #31
	cmp	r2, #0
	beq	.LBB18_17
	b	.LBB18_16
.LBB18_16:
.Ltmp160:
	.loc	62 239 13 is_stmt 1     @ src/main/cpp/RtmpClient.cpp:239:13
	ldr	r0, [sp, #24]           @ 4-byte Reload
	adds	r0, #36
	.loc	62 239 38 is_stmt 0     @ src/main/cpp/RtmpClient.cpp:239:38
	ldr	r1, [sp, #76]
	.loc	62 239 62               @ src/main/cpp/RtmpClient.cpp:239:62
	ldr	r2, [r1, #16]
	.loc	62 239 46               @ src/main/cpp/RtmpClient.cpp:239:46
	ldr	r1, [r1, #28]
	.loc	62 239 32               @ src/main/cpp/RtmpClient.cpp:239:32
	bl	_ZNSt6__ndk113basic_ostreamIcNS_11char_traitsIcEEE5writeEPKci
	.loc	62 240 9 is_stmt 1      @ src/main/cpp/RtmpClient.cpp:240:9
	b	.LBB18_17
.Ltmp161:
.LBB18_17:
	.loc	62 241 9                @ src/main/cpp/RtmpClient.cpp:241:9
	ldr	r1, .LCPI18_7
.LPC18_7:
	add	r1, pc
	ldr	r2, .LCPI18_8
.LPC18_8:
	add	r2, pc
	movs	r0, #3
	bl	__android_log_print
	.loc	62 242 5                @ src/main/cpp/RtmpClient.cpp:242:5
	b	.LBB18_18
.Ltmp162:
.LBB18_18:
	.loc	62 243 21               @ src/main/cpp/RtmpClient.cpp:243:21
	ldr	r0, [sp, #76]
	.loc	62 243 5 is_stmt 0      @ src/main/cpp/RtmpClient.cpp:243:5
	bl	RTMPPacket_Free
	.loc	62 244 10 is_stmt 1     @ src/main/cpp/RtmpClient.cpp:244:10
	ldr	r0, [sp, #76]
	.loc	62 244 5 is_stmt 0      @ src/main/cpp/RtmpClient.cpp:244:5
	bl	free
	movs	r0, #0
	.loc	62 245 5 is_stmt 1      @ src/main/cpp/RtmpClient.cpp:245:5
	str	r0, [sp, #72]
	b	.LBB18_19
.LBB18_19:
	.loc	62 246 1                @ src/main/cpp/RtmpClient.cpp:246:1
	ldr	r0, [sp, #72]
	ldr	r1, .LCPI18_9
.LPC18_9:
	add	r1, pc
	ldr	r1, [r1]
	ldr	r1, [r1]
	ldr	r2, [sp, #92]
	cmp	r1, r2
	str	r0, [sp]                @ 4-byte Spill
	bne	.LBB18_22
	b	.LBB18_20
.LBB18_20:                              @ %SP_return
	ldr	r0, [sp]                @ 4-byte Reload
	add	sp, #96
	pop	{r4, r6, r7, pc}
.LBB18_21:
.Ltmp163:
	.loc	62 180 13               @ src/main/cpp/RtmpClient.cpp:180:13
	ldr	r0, [sp, #44]
	bl	_Unwind_Resume
.Ltmp164:
.LBB18_22:                              @ %CallStackCheckFailBlk
	.loc	62 0 0 is_stmt 0        @ src/main/cpp/RtmpClient.cpp:0:0
	bl	__stack_chk_fail
.Ltmp165:
	.p2align	2
@ %bb.23:
.LCPI18_0:
.Ltmp166:
	.long	__stack_chk_guard(GOT_PREL)-((.LPC18_0+4)-.Ltmp166)
.LCPI18_1:
	.long	.L.str-(.LPC18_1+4)
.LCPI18_2:
	.long	.L.str.7-(.LPC18_2+4)
.LCPI18_3:
	.long	.L.str-(.LPC18_3+4)
.LCPI18_4:
	.long	.L.str.8-(.LPC18_4+4)
.LCPI18_5:
	.long	.L.str-(.LPC18_5+4)
.LCPI18_6:
	.long	.L.str.9-(.LPC18_6+4)
.LCPI18_7:
	.long	.L.str-(.LPC18_7+4)
.LCPI18_8:
	.long	.L.str.10-(.LPC18_8+4)
.LCPI18_9:
.Ltmp167:
	.long	__stack_chk_guard(GOT_PREL)-((.LPC18_9+4)-.Ltmp167)
.Lfunc_end18:
	.size	_ZN10RtmpClient13sendVideoDataEPhil, .Lfunc_end18-_ZN10RtmpClient13sendVideoDataEPhil
	.cfi_endproc
	.globl	__gxx_personality_v0
	.personality __gxx_personality_v0
	.handlerdata
	.p2align	2
GCC_except_table18:
.Lexception4:
	.byte	255                     @ @LPStart Encoding = omit
	.byte	255                     @ @TType Encoding = omit
	.byte	1                       @ Call site Encoding = uleb128
	.uleb128 .Lcst_end4-.Lcst_begin4
.Lcst_begin4:
	.uleb128 .Lfunc_begin18-.Lfunc_begin18 @ >> Call Site 1 <<
	.uleb128 .Ltmp135-.Lfunc_begin18 @   Call between .Lfunc_begin18 and .Ltmp135
	.byte	0                       @     has no landing pad
	.byte	0                       @   On action: cleanup
	.uleb128 .Ltmp135-.Lfunc_begin18 @ >> Call Site 2 <<
	.uleb128 .Ltmp136-.Ltmp135      @   Call between .Ltmp135 and .Ltmp136
	.uleb128 .Ltmp137-.Lfunc_begin18 @     jumps to .Ltmp137
	.byte	0                       @   On action: cleanup
	.uleb128 .Ltmp136-.Lfunc_begin18 @ >> Call Site 3 <<
	.uleb128 .Lfunc_end18-.Ltmp136  @   Call between .Ltmp136 and .Lfunc_end18
	.byte	0                       @     has no landing pad
	.byte	0                       @   On action: cleanup
.Lcst_end4:
	.p2align	2
	.fnend
                                        @ -- End function
	.section	.text._ZN10H264Parser13FindStartCodeEPhi,"axG",%progbits,_ZN10H264Parser13FindStartCodeEPhi,comdat
	.weak	_ZN10H264Parser13FindStartCodeEPhi @ -- Begin function _ZN10H264Parser13FindStartCodeEPhi
	.p2align	1
	.type	_ZN10H264Parser13FindStartCodeEPhi,%function
	.code	16                      @ @_ZN10H264Parser13FindStartCodeEPhi
	.thumb_func
_ZN10H264Parser13FindStartCodeEPhi:
.Lfunc_begin19:
	.loc	18 80 0 is_stmt 1       @ src/main/cpp/H264Parser.h:80:0
	.fnstart
	.cfi_startproc
@ %bb.0:
	.pad	#12
	sub	sp, #12
	.cfi_def_cfa_offset 12
	str	r0, [sp, #4]
	str	r1, [sp]
.Ltmp168:
	.loc	18 81 13 prologue_end   @ src/main/cpp/H264Parser.h:81:13
	ldr	r0, [sp]
.Ltmp169:
	.loc	18 81 13 is_stmt 0      @ src/main/cpp/H264Parser.h:81:13
	cmp	r0, #4
	blt	.LBB19_12
	b	.LBB19_1
.LBB19_1:
.Ltmp170:
	.loc	18 82 18 is_stmt 1      @ src/main/cpp/H264Parser.h:82:18
	ldr	r0, [sp, #4]
	ldrb	r0, [r0]
	.loc	18 82 26 is_stmt 0      @ src/main/cpp/H264Parser.h:82:26
	cmp	r0, #0
	bne	.LBB19_5
	b	.LBB19_2
.LBB19_2:
	.loc	18 82 30                @ src/main/cpp/H264Parser.h:82:30
	ldr	r0, [sp, #4]
	ldrb	r0, [r0, #1]
	.loc	18 82 38                @ src/main/cpp/H264Parser.h:82:38
	cmp	r0, #0
	bne	.LBB19_5
	b	.LBB19_3
.LBB19_3:
	.loc	18 82 41                @ src/main/cpp/H264Parser.h:82:41
	ldr	r0, [sp, #4]
	ldrb	r0, [r0, #2]
.Ltmp171:
	.loc	18 82 17                @ src/main/cpp/H264Parser.h:82:17
	cmp	r0, #1
	bne	.LBB19_5
	b	.LBB19_4
.LBB19_4:
	.loc	18 0 17                 @ src/main/cpp/H264Parser.h:0:17
	movs	r0, #3
.Ltmp172:
	.loc	18 84 17 is_stmt 1      @ src/main/cpp/H264Parser.h:84:17
	str	r0, [sp, #8]
	b	.LBB19_20
.Ltmp173:
.LBB19_5:
	.loc	18 85 25                @ src/main/cpp/H264Parser.h:85:25
	ldr	r0, [sp, #4]
	ldrb	r0, [r0]
	.loc	18 85 33 is_stmt 0      @ src/main/cpp/H264Parser.h:85:33
	cmp	r0, #0
	bne	.LBB19_10
	b	.LBB19_6
.LBB19_6:
	.loc	18 85 37                @ src/main/cpp/H264Parser.h:85:37
	ldr	r0, [sp, #4]
	ldrb	r0, [r0, #1]
	.loc	18 85 45                @ src/main/cpp/H264Parser.h:85:45
	cmp	r0, #0
	bne	.LBB19_10
	b	.LBB19_7
.LBB19_7:
	.loc	18 85 49                @ src/main/cpp/H264Parser.h:85:49
	ldr	r0, [sp, #4]
	ldrb	r0, [r0, #2]
	.loc	18 85 57                @ src/main/cpp/H264Parser.h:85:57
	cmp	r0, #0
	bne	.LBB19_10
	b	.LBB19_8
.LBB19_8:
	.loc	18 85 60                @ src/main/cpp/H264Parser.h:85:60
	ldr	r0, [sp, #4]
	ldrb	r0, [r0, #3]
.Ltmp174:
	.loc	18 85 24                @ src/main/cpp/H264Parser.h:85:24
	cmp	r0, #1
	bne	.LBB19_10
	b	.LBB19_9
.LBB19_9:
	.loc	18 0 24                 @ src/main/cpp/H264Parser.h:0:24
	movs	r0, #4
.Ltmp175:
	.loc	18 87 17 is_stmt 1      @ src/main/cpp/H264Parser.h:87:17
	str	r0, [sp, #8]
	b	.LBB19_20
.Ltmp176:
.LBB19_10:
	.loc	18 0 17 is_stmt 0       @ src/main/cpp/H264Parser.h:0:17
	b	.LBB19_11
.LBB19_11:
	.loc	18 89 9 is_stmt 1       @ src/main/cpp/H264Parser.h:89:9
	b	.LBB19_19
.Ltmp177:
.LBB19_12:
	.loc	18 89 20 is_stmt 0      @ src/main/cpp/H264Parser.h:89:20
	ldr	r0, [sp]
.Ltmp178:
	.loc	18 89 20                @ src/main/cpp/H264Parser.h:89:20
	cmp	r0, #3
	blt	.LBB19_18
	b	.LBB19_13
.LBB19_13:
.Ltmp179:
	.loc	18 91 18 is_stmt 1      @ src/main/cpp/H264Parser.h:91:18
	ldr	r0, [sp, #4]
	ldrb	r0, [r0]
	.loc	18 91 26 is_stmt 0      @ src/main/cpp/H264Parser.h:91:26
	cmp	r0, #0
	bne	.LBB19_17
	b	.LBB19_14
.LBB19_14:
	.loc	18 91 30                @ src/main/cpp/H264Parser.h:91:30
	ldr	r0, [sp, #4]
	ldrb	r0, [r0, #1]
	.loc	18 91 38                @ src/main/cpp/H264Parser.h:91:38
	cmp	r0, #0
	bne	.LBB19_17
	b	.LBB19_15
.LBB19_15:
	.loc	18 91 41                @ src/main/cpp/H264Parser.h:91:41
	ldr	r0, [sp, #4]
	ldrb	r0, [r0, #2]
.Ltmp180:
	.loc	18 91 17                @ src/main/cpp/H264Parser.h:91:17
	cmp	r0, #1
	bne	.LBB19_17
	b	.LBB19_16
.LBB19_16:
	.loc	18 0 17                 @ src/main/cpp/H264Parser.h:0:17
	movs	r0, #3
.Ltmp181:
	.loc	18 92 17 is_stmt 1      @ src/main/cpp/H264Parser.h:92:17
	str	r0, [sp, #8]
	b	.LBB19_20
.Ltmp182:
.LBB19_17:
	.loc	18 94 9                 @ src/main/cpp/H264Parser.h:94:9
	b	.LBB19_18
.Ltmp183:
.LBB19_18:
	.loc	18 0 9 is_stmt 0        @ src/main/cpp/H264Parser.h:0:9
	b	.LBB19_19
.LBB19_19:
	movs	r0, #0
	.loc	18 95 9 is_stmt 1       @ src/main/cpp/H264Parser.h:95:9
	str	r0, [sp, #8]
	b	.LBB19_20
.LBB19_20:
	.loc	18 96 5                 @ src/main/cpp/H264Parser.h:96:5
	ldr	r0, [sp, #8]
	add	sp, #12
	bx	lr
.Ltmp184:
.Lfunc_end19:
	.size	_ZN10H264Parser13FindStartCodeEPhi, .Lfunc_end19-_ZN10H264Parser13FindStartCodeEPhi
	.cfi_endproc
	.fnend
                                        @ -- End function
	.section	.text._ZN10H264Parser29RemoveEmulationPreventionCodeEPhi,"axG",%progbits,_ZN10H264Parser29RemoveEmulationPreventionCodeEPhi,comdat
	.weak	_ZN10H264Parser29RemoveEmulationPreventionCodeEPhi @ -- Begin function _ZN10H264Parser29RemoveEmulationPreventionCodeEPhi
	.p2align	1
	.type	_ZN10H264Parser29RemoveEmulationPreventionCodeEPhi,%function
	.code	16                      @ @_ZN10H264Parser29RemoveEmulationPreventionCodeEPhi
	.thumb_func
_ZN10H264Parser29RemoveEmulationPreventionCodeEPhi:
.Lfunc_begin20:
	.loc	18 59 0                 @ src/main/cpp/H264Parser.h:59:0
	.fnstart
	.cfi_startproc
@ %bb.0:
	.save	{r7, lr}
	push	{r7, lr}
	.cfi_def_cfa_offset 8
	.cfi_offset lr, -4
	.cfi_offset r7, -8
	.setfp	r7, sp
	mov	r7, sp
	.cfi_def_cfa_register r7
	.pad	#24
	sub	sp, #24
	str	r0, [sp, #20]
	str	r1, [sp, #16]
.Ltmp185:
	.loc	18 60 29 prologue_end   @ src/main/cpp/H264Parser.h:60:29
	ldr	r0, [sp, #20]
	.loc	18 60 18 is_stmt 0      @ src/main/cpp/H264Parser.h:60:18
	str	r0, [sp, #12]
	movs	r0, #0
	.loc	18 61 13 is_stmt 1      @ src/main/cpp/H264Parser.h:61:13
	str	r0, [sp, #8]
	.loc	18 61 20 is_stmt 0      @ src/main/cpp/H264Parser.h:61:20
	str	r0, [sp, #4]
	.loc	18 62 9 is_stmt 1       @ src/main/cpp/H264Parser.h:62:9
	b	.LBB20_1
.LBB20_1:                               @ =>This Inner Loop Header: Depth=1
	.loc	18 62 16 is_stmt 0      @ src/main/cpp/H264Parser.h:62:16
	ldr	r0, [sp, #8]
	.loc	18 62 20                @ src/main/cpp/H264Parser.h:62:20
	ldr	r1, [sp, #16]
	.loc	18 62 9                 @ src/main/cpp/H264Parser.h:62:9
	cmp	r0, r1
	bge	.LBB20_7
	b	.LBB20_2
.LBB20_2:                               @   in Loop: Header=BB20_1 Depth=1
.Ltmp186:
	.loc	18 63 17 is_stmt 1      @ src/main/cpp/H264Parser.h:63:17
	ldr	r0, [sp, #16]
	.loc	18 63 26 is_stmt 0      @ src/main/cpp/H264Parser.h:63:26
	ldr	r1, [sp, #8]
	.loc	18 63 24                @ src/main/cpp/H264Parser.h:63:24
	subs	r0, r0, r1
	.loc	18 63 32                @ src/main/cpp/H264Parser.h:63:32
	cmp	r0, #4
	blt	.LBB20_5
	b	.LBB20_3
.LBB20_3:                               @   in Loop: Header=BB20_1 Depth=1
	.loc	18 63 43                @ src/main/cpp/H264Parser.h:63:43
	ldr	r0, [sp, #20]
	.loc	18 63 48                @ src/main/cpp/H264Parser.h:63:48
	ldr	r1, [sp, #8]
	.loc	18 63 43                @ src/main/cpp/H264Parser.h:63:43
	add	r0, r1
	.loc	18 63 35                @ src/main/cpp/H264Parser.h:63:35
	bl	_ZN10H264Parser6Read24EPh
.Ltmp187:
	.loc	18 63 17                @ src/main/cpp/H264Parser.h:63:17
	cmp	r0, #3
	bne	.LBB20_5
	b	.LBB20_4
.LBB20_4:                               @   in Loop: Header=BB20_1 Depth=1
.Ltmp188:
	.loc	18 64 33 is_stmt 1      @ src/main/cpp/H264Parser.h:64:33
	ldr	r0, [sp, #20]
	.loc	18 64 39 is_stmt 0      @ src/main/cpp/H264Parser.h:64:39
	ldr	r1, [sp, #8]
	adds	r2, r1, #1
	str	r2, [sp, #8]
	.loc	18 64 33                @ src/main/cpp/H264Parser.h:64:33
	ldrb	r0, [r0, r1]
	.loc	18 64 17                @ src/main/cpp/H264Parser.h:64:17
	ldr	r1, [sp, #12]
	.loc	18 64 27                @ src/main/cpp/H264Parser.h:64:27
	ldr	r2, [sp, #4]
	adds	r3, r2, #1
	str	r3, [sp, #4]
	.loc	18 64 31                @ src/main/cpp/H264Parser.h:64:31
	strb	r0, [r1, r2]
	.loc	18 65 33 is_stmt 1      @ src/main/cpp/H264Parser.h:65:33
	ldr	r0, [sp, #20]
	.loc	18 65 39 is_stmt 0      @ src/main/cpp/H264Parser.h:65:39
	ldr	r1, [sp, #8]
	adds	r2, r1, #1
	str	r2, [sp, #8]
	.loc	18 65 33                @ src/main/cpp/H264Parser.h:65:33
	ldrb	r0, [r0, r1]
	.loc	18 65 17                @ src/main/cpp/H264Parser.h:65:17
	ldr	r1, [sp, #12]
	.loc	18 65 27                @ src/main/cpp/H264Parser.h:65:27
	ldr	r2, [sp, #4]
	adds	r3, r2, #1
	str	r3, [sp, #4]
	.loc	18 65 31                @ src/main/cpp/H264Parser.h:65:31
	strb	r0, [r1, r2]
	.loc	18 66 18 is_stmt 1      @ src/main/cpp/H264Parser.h:66:18
	ldr	r0, [sp, #8]
	adds	r0, #1
	str	r0, [sp, #8]
	.loc	18 67 13                @ src/main/cpp/H264Parser.h:67:13
	b	.LBB20_6
.Ltmp189:
.LBB20_5:                               @   in Loop: Header=BB20_1 Depth=1
	.loc	18 68 29                @ src/main/cpp/H264Parser.h:68:29
	ldr	r0, [sp, #20]
	.loc	18 68 35 is_stmt 0      @ src/main/cpp/H264Parser.h:68:35
	ldr	r1, [sp, #8]
	adds	r2, r1, #1
	str	r2, [sp, #8]
	.loc	18 68 29                @ src/main/cpp/H264Parser.h:68:29
	ldrb	r0, [r0, r1]
	.loc	18 68 17                @ src/main/cpp/H264Parser.h:68:17
	ldr	r1, [sp, #20]
	.loc	18 68 23                @ src/main/cpp/H264Parser.h:68:23
	ldr	r2, [sp, #4]
	adds	r3, r2, #1
	str	r3, [sp, #4]
	.loc	18 68 27                @ src/main/cpp/H264Parser.h:68:27
	strb	r0, [r1, r2]
	b	.LBB20_6
.Ltmp190:
.LBB20_6:                               @   in Loop: Header=BB20_1 Depth=1
	.loc	18 62 9 is_stmt 1       @ src/main/cpp/H264Parser.h:62:9
	b	.LBB20_1
.LBB20_7:
	.loc	18 71 16                @ src/main/cpp/H264Parser.h:71:16
	ldr	r0, [sp, #4]
	.loc	18 71 9 is_stmt 0       @ src/main/cpp/H264Parser.h:71:9
	add	sp, #24
	pop	{r7, pc}
.Ltmp191:
.Lfunc_end20:
	.size	_ZN10H264Parser29RemoveEmulationPreventionCodeEPhi, .Lfunc_end20-_ZN10H264Parser29RemoveEmulationPreventionCodeEPhi
	.cfi_endproc
	.fnend
                                        @ -- End function
	.section	.text._ZN10RtmpClient10SendNALSPSEPhil,"ax",%progbits
	.globl	_ZN10RtmpClient10SendNALSPSEPhil @ -- Begin function _ZN10RtmpClient10SendNALSPSEPhil
	.p2align	2
	.type	_ZN10RtmpClient10SendNALSPSEPhil,%function
	.code	16                      @ @_ZN10RtmpClient10SendNALSPSEPhil
	.thumb_func
_ZN10RtmpClient10SendNALSPSEPhil:
.Lfunc_begin21:
	.loc	62 248 0 is_stmt 1      @ src/main/cpp/RtmpClient.cpp:248:0
	.fnstart
	.cfi_startproc
@ %bb.0:
	.save	{r4, r6, r7, lr}
	push	{r4, r6, r7, lr}
	.cfi_def_cfa_offset 16
	.cfi_offset lr, -4
	.cfi_offset r7, -8
	.cfi_offset r6, -12
	.cfi_offset r4, -16
	.setfp	r7, sp, #8
	add	r7, sp, #8
	.cfi_def_cfa r7, 8
	.pad	#112
	sub	sp, #112
	ldr	r4, .LCPI21_0
.LPC21_0:
	add	r4, pc
	ldr.w	r12, [r4]
	ldr.w	r12, [r12]
	str.w	r12, [sp, #108]
	str	r0, [sp, #72]
	str	r1, [sp, #68]
	str	r2, [sp, #64]
	str	r3, [sp, #60]
	ldr	r0, [sp, #72]
.Ltmp218:
	.loc	62 249 23 prologue_end  @ src/main/cpp/RtmpClient.cpp:249:23
	ldr	r1, [sp, #68]
	.loc	62 249 29 is_stmt 0     @ src/main/cpp/RtmpClient.cpp:249:29
	ldr	r2, [sp, #64]
	add	r3, sp, #92
	.loc	62 249 16               @ src/main/cpp/RtmpClient.cpp:249:16
	str	r0, [sp, #28]           @ 4-byte Spill
	mov	r0, r3
	str	r3, [sp, #24]           @ 4-byte Spill
	bl	_ZN10H264ParamsC1EPhi
.Ltmp192:
	add	r0, sp, #80
	.loc	62 250 29 is_stmt 1     @ src/main/cpp/RtmpClient.cpp:250:29
	ldr	r1, [sp, #24]           @ 4-byte Reload
	bl	_ZN23AVCDecoderConfigurationC1ER10H264Params
.Ltmp193:
	b	.LBB21_1
.LBB21_1:
	.loc	62 0 29 is_stmt 0       @ src/main/cpp/RtmpClient.cpp:0:29
	movs	r0, #2
	.loc	62 252 10 is_stmt 1     @ src/main/cpp/RtmpClient.cpp:252:10
	str	r0, [sp, #48]
	movs	r0, #7
	.loc	62 253 10               @ src/main/cpp/RtmpClient.cpp:253:10
	str	r0, [sp, #44]
	movs	r0, #0
	.loc	62 254 10               @ src/main/cpp/RtmpClient.cpp:254:10
	str	r0, [sp, #40]
.Ltmp195:
	add	r0, sp, #80
	.loc	62 256 47               @ src/main/cpp/RtmpClient.cpp:256:47
	bl	_ZN23AVCDecoderConfiguration15GetBufferLengthEv
.Ltmp196:
	str	r0, [sp, #20]           @ 4-byte Spill
	b	.LBB21_2
.LBB21_2:
	.loc	62 256 10 is_stmt 0     @ src/main/cpp/RtmpClient.cpp:256:10
	ldr	r0, [sp, #20]           @ 4-byte Reload
	str	r0, [sp, #36]
.Ltmp197:
	movs	r0, #32
	.loc	62 257 20 is_stmt 1     @ src/main/cpp/RtmpClient.cpp:257:20
	bl	_Znwj
.Ltmp198:
	str	r0, [sp, #16]           @ 4-byte Spill
	b	.LBB21_3
.LBB21_3:
	.loc	62 257 24 is_stmt 0     @ src/main/cpp/RtmpClient.cpp:257:24
	vmov.i32	q8, #0x0
	ldr	r0, [sp, #16]           @ 4-byte Reload
	vst1.64	{d16, d17}, [r0]!
	vst1.64	{d16, d17}, [r0]
	.loc	62 257 11               @ src/main/cpp/RtmpClient.cpp:257:11
	ldr	r0, [sp, #16]           @ 4-byte Reload
	str	r0, [sp, #76]
	movs	r1, #5
	.loc	62 258 10 is_stmt 1     @ src/main/cpp/RtmpClient.cpp:258:10
	str	r1, [sp, #32]
	.loc	62 259 22               @ src/main/cpp/RtmpClient.cpp:259:22
	ldr	r0, [sp, #76]
	.loc	62 259 30 is_stmt 0     @ src/main/cpp/RtmpClient.cpp:259:30
	ldr	r1, [sp, #36]
	.loc	62 259 43               @ src/main/cpp/RtmpClient.cpp:259:43
	ldr	r2, [sp, #32]
	.loc	62 259 41               @ src/main/cpp/RtmpClient.cpp:259:41
	add	r1, r2
.Ltmp199:
	.loc	62 259 5                @ src/main/cpp/RtmpClient.cpp:259:5
	bl	RTMPPacket_Alloc
.Ltmp200:
	b	.LBB21_4
.LBB21_4:
	.loc	62 260 22 is_stmt 1     @ src/main/cpp/RtmpClient.cpp:260:22
	ldr	r0, [sp, #76]
.Ltmp201:
	.loc	62 260 5 is_stmt 0      @ src/main/cpp/RtmpClient.cpp:260:5
	bl	RTMPPacket_Reset
.Ltmp202:
	b	.LBB21_5
.LBB21_5:
	.loc	62 262 25 is_stmt 1     @ src/main/cpp/RtmpClient.cpp:262:25
	ldr	r0, [sp, #48]
	.loc	62 262 43 is_stmt 0     @ src/main/cpp/RtmpClient.cpp:262:43
	ldr	r1, [sp, #44]
	.loc	62 262 41               @ src/main/cpp/RtmpClient.cpp:262:41
	orr.w	r0, r1, r0, lsl #4
	.loc	62 262 5                @ src/main/cpp/RtmpClient.cpp:262:5
	ldr	r1, [sp, #76]
	.loc	62 262 13               @ src/main/cpp/RtmpClient.cpp:262:13
	ldr	r1, [r1, #28]
	.loc	62 262 23               @ src/main/cpp/RtmpClient.cpp:262:23
	strb	r0, [r1]
	.loc	62 263 25 is_stmt 1     @ src/main/cpp/RtmpClient.cpp:263:25
	ldr	r0, [sp, #40]
	.loc	62 263 5 is_stmt 0      @ src/main/cpp/RtmpClient.cpp:263:5
	ldr	r1, [sp, #76]
	.loc	62 263 13               @ src/main/cpp/RtmpClient.cpp:263:13
	ldr	r1, [r1, #28]
	.loc	62 263 23               @ src/main/cpp/RtmpClient.cpp:263:23
	strb	r0, [r1, #1]
	.loc	62 264 5 is_stmt 1      @ src/main/cpp/RtmpClient.cpp:264:5
	ldr	r0, [sp, #76]
	.loc	62 264 13 is_stmt 0     @ src/main/cpp/RtmpClient.cpp:264:13
	ldr	r0, [r0, #28]
	movs	r1, #0
	.loc	62 264 23               @ src/main/cpp/RtmpClient.cpp:264:23
	strb	r1, [r0, #2]
	.loc	62 265 5 is_stmt 1      @ src/main/cpp/RtmpClient.cpp:265:5
	ldr	r0, [sp, #76]
	.loc	62 265 13 is_stmt 0     @ src/main/cpp/RtmpClient.cpp:265:13
	ldr	r0, [r0, #28]
	.loc	62 265 23               @ src/main/cpp/RtmpClient.cpp:265:23
	strb	r1, [r0, #3]
	.loc	62 266 5 is_stmt 1      @ src/main/cpp/RtmpClient.cpp:266:5
	ldr	r0, [sp, #76]
	.loc	62 266 13 is_stmt 0     @ src/main/cpp/RtmpClient.cpp:266:13
	ldr	r0, [r0, #28]
	.loc	62 266 23               @ src/main/cpp/RtmpClient.cpp:266:23
	strb	r1, [r0, #4]
	.loc	62 275 5 is_stmt 1      @ src/main/cpp/RtmpClient.cpp:275:5
	ldr	r0, [sp, #76]
	.loc	62 275 31 is_stmt 0     @ src/main/cpp/RtmpClient.cpp:275:31
	strb	r1, [r0, #2]
	.loc	62 276 5 is_stmt 1      @ src/main/cpp/RtmpClient.cpp:276:5
	ldr	r0, [sp, #76]
	movs	r2, #9
	.loc	62 276 26 is_stmt 0     @ src/main/cpp/RtmpClient.cpp:276:26
	strb	r2, [r0, #1]
	.loc	62 277 29 is_stmt 1     @ src/main/cpp/RtmpClient.cpp:277:29
	ldr	r0, [sp, #28]           @ 4-byte Reload
	ldr	r2, [r0]
	.loc	62 277 36 is_stmt 0     @ src/main/cpp/RtmpClient.cpp:277:36
	ldr	r2, [r2, #24]
	.loc	62 277 5                @ src/main/cpp/RtmpClient.cpp:277:5
	ldr	r3, [sp, #76]
	.loc	62 277 27               @ src/main/cpp/RtmpClient.cpp:277:27
	str	r2, [r3, #12]
	.loc	62 278 5 is_stmt 1      @ src/main/cpp/RtmpClient.cpp:278:5
	ldr	r2, [sp, #76]
	movs	r3, #4
	.loc	62 278 24 is_stmt 0     @ src/main/cpp/RtmpClient.cpp:278:24
	str	r3, [r2, #4]
	.loc	62 279 5 is_stmt 1      @ src/main/cpp/RtmpClient.cpp:279:5
	ldr	r2, [sp, #76]
	.loc	62 279 26 is_stmt 0     @ src/main/cpp/RtmpClient.cpp:279:26
	strb	r1, [r2]
	.loc	62 280 28 is_stmt 1     @ src/main/cpp/RtmpClient.cpp:280:28
	ldr	r1, [sp, #60]
	.loc	62 280 5 is_stmt 0      @ src/main/cpp/RtmpClient.cpp:280:5
	ldr	r2, [sp, #76]
	.loc	62 280 26               @ src/main/cpp/RtmpClient.cpp:280:26
	str	r1, [r2, #8]
	.loc	62 281 27 is_stmt 1     @ src/main/cpp/RtmpClient.cpp:281:27
	ldr	r1, [sp, #36]
	.loc	62 281 40 is_stmt 0     @ src/main/cpp/RtmpClient.cpp:281:40
	ldr	r2, [sp, #32]
	.loc	62 281 38               @ src/main/cpp/RtmpClient.cpp:281:38
	add	r1, r2
	.loc	62 281 5                @ src/main/cpp/RtmpClient.cpp:281:5
	ldr	r2, [sp, #76]
	.loc	62 281 25               @ src/main/cpp/RtmpClient.cpp:281:25
	str	r1, [r2, #16]
	.loc	62 283 13 is_stmt 1     @ src/main/cpp/RtmpClient.cpp:283:13
	ldr	r1, [sp, #76]
	.loc	62 283 21 is_stmt 0     @ src/main/cpp/RtmpClient.cpp:283:21
	ldr	r1, [r1, #28]
	.loc	62 283 28               @ src/main/cpp/RtmpClient.cpp:283:28
	ldr	r2, [sp, #32]
	.loc	62 283 13               @ src/main/cpp/RtmpClient.cpp:283:13
	add	r1, r2
.Ltmp203:
	add	r0, sp, #80
	.loc	62 283 65               @ src/main/cpp/RtmpClient.cpp:283:65
	str	r1, [sp, #12]           @ 4-byte Spill
	bl	_ZN23AVCDecoderConfiguration9GetBufferEv
.Ltmp204:
	str	r0, [sp, #8]            @ 4-byte Spill
	b	.LBB21_6
.LBB21_6:
	.loc	62 283 78               @ src/main/cpp/RtmpClient.cpp:283:78
	ldr	r2, [sp, #36]
	.loc	62 283 5                @ src/main/cpp/RtmpClient.cpp:283:5
	ldr	r0, [sp, #12]           @ 4-byte Reload
	ldr	r1, [sp, #8]            @ 4-byte Reload
	bl	__aeabi_memcpy
.Ltmp219:
	.loc	62 285 26 is_stmt 1     @ src/main/cpp/RtmpClient.cpp:285:26
	ldr	r1, [sp, #28]           @ 4-byte Reload
	ldr	r2, [r1]
.Ltmp205:
	.loc	62 285 9 is_stmt 0      @ src/main/cpp/RtmpClient.cpp:285:9
	str	r0, [sp, #4]            @ 4-byte Spill
	mov	r0, r2
	bl	RTMP_IsConnected
.Ltmp206:
	str	r0, [sp]                @ 4-byte Spill
	b	.LBB21_7
.Ltmp220:
.LBB21_7:
	.loc	62 285 9                @ src/main/cpp/RtmpClient.cpp:285:9
	ldr	r0, [sp]                @ 4-byte Reload
	cmp	r0, #0
	beq	.LBB21_16
	b	.LBB21_8
.LBB21_8:
.Ltmp221:
	.loc	62 286 25 is_stmt 1     @ src/main/cpp/RtmpClient.cpp:286:25
	ldr	r0, [sp, #28]           @ 4-byte Reload
	ldr	r0, [r0]
	.loc	62 286 32 is_stmt 0     @ src/main/cpp/RtmpClient.cpp:286:32
	ldr	r1, [sp, #76]
.Ltmp207:
	movs	r2, #1
	.loc	62 286 9                @ src/main/cpp/RtmpClient.cpp:286:9
	bl	RTMP_SendPacket
.Ltmp208:
	b	.LBB21_9
.LBB21_9:
.Ltmp222:
	.loc	62 287 13 is_stmt 1     @ src/main/cpp/RtmpClient.cpp:287:13
	ldr	r0, [sp, #28]           @ 4-byte Reload
	ldrb	r1, [r0, #20]
.Ltmp223:
	.loc	62 287 13 is_stmt 0     @ src/main/cpp/RtmpClient.cpp:287:13
	lsls	r1, r1, #31
	cmp	r1, #0
	beq	.LBB21_14
	b	.LBB21_10
.LBB21_10:
.Ltmp224:
	.loc	62 288 13 is_stmt 1     @ src/main/cpp/RtmpClient.cpp:288:13
	ldr	r0, [sp, #28]           @ 4-byte Reload
	adds	r0, #36
	.loc	62 288 38 is_stmt 0     @ src/main/cpp/RtmpClient.cpp:288:38
	ldr	r1, [sp, #76]
	.loc	62 288 62               @ src/main/cpp/RtmpClient.cpp:288:62
	ldr	r2, [r1, #16]
	.loc	62 288 46               @ src/main/cpp/RtmpClient.cpp:288:46
	ldr	r1, [r1, #28]
.Ltmp209:
	.loc	62 288 32               @ src/main/cpp/RtmpClient.cpp:288:32
	bl	_ZNSt6__ndk113basic_ostreamIcNS_11char_traitsIcEEE5writeEPKci
.Ltmp210:
	b	.LBB21_11
.LBB21_11:
	.loc	62 289 9 is_stmt 1      @ src/main/cpp/RtmpClient.cpp:289:9
	b	.LBB21_14
.Ltmp225:
.LBB21_12:
.Ltmp194:
	.loc	62 296 1                @ src/main/cpp/RtmpClient.cpp:296:1
	str	r0, [sp, #56]
	str	r1, [sp, #52]
	b	.LBB21_20
.LBB21_13:
.Ltmp217:
	str	r0, [sp, #56]
	str	r1, [sp, #52]
	add	r0, sp, #80
	bl	_ZN23AVCDecoderConfigurationD1Ev
	b	.LBB21_20
.LBB21_14:
.Ltmp211:
.Ltmp226:
	.loc	62 290 9                @ src/main/cpp/RtmpClient.cpp:290:9
	ldr	r1, .LCPI21_1
.LPC21_1:
	add	r1, pc
	ldr	r2, .LCPI21_2
.LPC21_2:
	add	r2, pc
	movs	r0, #3
	bl	__android_log_print
.Ltmp212:
	b	.LBB21_15
.LBB21_15:
	.loc	62 291 5                @ src/main/cpp/RtmpClient.cpp:291:5
	b	.LBB21_16
.Ltmp227:
.LBB21_16:
	.loc	62 292 21               @ src/main/cpp/RtmpClient.cpp:292:21
	ldr	r0, [sp, #76]
.Ltmp213:
	.loc	62 292 5 is_stmt 0      @ src/main/cpp/RtmpClient.cpp:292:5
	bl	RTMPPacket_Free
.Ltmp214:
	b	.LBB21_17
.LBB21_17:
	.loc	62 293 10 is_stmt 1     @ src/main/cpp/RtmpClient.cpp:293:10
	ldr	r0, [sp, #76]
.Ltmp215:
	.loc	62 293 5 is_stmt 0      @ src/main/cpp/RtmpClient.cpp:293:5
	bl	free
.Ltmp216:
	b	.LBB21_18
.LBB21_18:
	.loc	62 0 5                  @ src/main/cpp/RtmpClient.cpp:0:5
	add	r0, sp, #80
	.loc	62 296 1 is_stmt 1      @ src/main/cpp/RtmpClient.cpp:296:1
	bl	_ZN23AVCDecoderConfigurationD1Ev
	add	r0, sp, #92
	bl	_ZN10H264ParamsD1Ev
	ldr	r0, .LCPI21_3
.LPC21_3:
	add	r0, pc
	ldr	r0, [r0]
	ldr	r0, [r0]
	ldr	r1, [sp, #108]
	cmp	r0, r1
	bne	.LBB21_22
	b	.LBB21_19
.LBB21_19:                              @ %SP_return
	.loc	62 0 1 is_stmt 0        @ src/main/cpp/RtmpClient.cpp:0:1
	movs	r0, #0
	.loc	62 296 1                @ src/main/cpp/RtmpClient.cpp:296:1
	add	sp, #112
	pop	{r4, r6, r7, pc}
.LBB21_20:
	.loc	62 0 1                  @ src/main/cpp/RtmpClient.cpp:0:1
	add	r0, sp, #92
	.loc	62 296 1                @ src/main/cpp/RtmpClient.cpp:296:1
	bl	_ZN10H264ParamsD1Ev
	b	.LBB21_21
.LBB21_21:
	ldr	r0, [sp, #56]
	bl	_Unwind_Resume
.LBB21_22:                              @ %CallStackCheckFailBlk
	.loc	62 0 0                  @ src/main/cpp/RtmpClient.cpp:0:0
	bl	__stack_chk_fail
.Ltmp228:
	.p2align	2
@ %bb.23:
.LCPI21_0:
.Ltmp229:
	.long	__stack_chk_guard(GOT_PREL)-((.LPC21_0+4)-.Ltmp229)
.LCPI21_1:
	.long	.L.str-(.LPC21_1+4)
.LCPI21_2:
	.long	.L.str.10-(.LPC21_2+4)
.LCPI21_3:
.Ltmp230:
	.long	__stack_chk_guard(GOT_PREL)-((.LPC21_3+4)-.Ltmp230)
.Lfunc_end21:
	.size	_ZN10RtmpClient10SendNALSPSEPhil, .Lfunc_end21-_ZN10RtmpClient10SendNALSPSEPhil
	.cfi_endproc
	.globl	__gxx_personality_v0
	.personality __gxx_personality_v0
	.handlerdata
	.p2align	2
GCC_except_table21:
.Lexception5:
	.byte	255                     @ @LPStart Encoding = omit
	.byte	255                     @ @TType Encoding = omit
	.byte	1                       @ Call site Encoding = uleb128
	.uleb128 .Lcst_end5-.Lcst_begin5
.Lcst_begin5:
	.uleb128 .Lfunc_begin21-.Lfunc_begin21 @ >> Call Site 1 <<
	.uleb128 .Ltmp192-.Lfunc_begin21 @   Call between .Lfunc_begin21 and .Ltmp192
	.byte	0                       @     has no landing pad
	.byte	0                       @   On action: cleanup
	.uleb128 .Ltmp192-.Lfunc_begin21 @ >> Call Site 2 <<
	.uleb128 .Ltmp193-.Ltmp192      @   Call between .Ltmp192 and .Ltmp193
	.uleb128 .Ltmp194-.Lfunc_begin21 @     jumps to .Ltmp194
	.byte	0                       @   On action: cleanup
	.uleb128 .Ltmp195-.Lfunc_begin21 @ >> Call Site 3 <<
	.uleb128 .Ltmp204-.Ltmp195      @   Call between .Ltmp195 and .Ltmp204
	.uleb128 .Ltmp217-.Lfunc_begin21 @     jumps to .Ltmp217
	.byte	0                       @   On action: cleanup
	.uleb128 .Ltmp204-.Lfunc_begin21 @ >> Call Site 4 <<
	.uleb128 .Ltmp205-.Ltmp204      @   Call between .Ltmp204 and .Ltmp205
	.byte	0                       @     has no landing pad
	.byte	0                       @   On action: cleanup
	.uleb128 .Ltmp205-.Lfunc_begin21 @ >> Call Site 5 <<
	.uleb128 .Ltmp216-.Ltmp205      @   Call between .Ltmp205 and .Ltmp216
	.uleb128 .Ltmp217-.Lfunc_begin21 @     jumps to .Ltmp217
	.byte	0                       @   On action: cleanup
	.uleb128 .Ltmp216-.Lfunc_begin21 @ >> Call Site 6 <<
	.uleb128 .Lfunc_end21-.Ltmp216  @   Call between .Ltmp216 and .Lfunc_end21
	.byte	0                       @     has no landing pad
	.byte	0                       @   On action: cleanup
.Lcst_end5:
	.p2align	2
	.fnend
                                        @ -- End function
	.section	.text._ZN7HexUtil9Bytes2HexEPhi,"axG",%progbits,_ZN7HexUtil9Bytes2HexEPhi,comdat
	.weak	_ZN7HexUtil9Bytes2HexEPhi @ -- Begin function _ZN7HexUtil9Bytes2HexEPhi
	.p2align	2
	.type	_ZN7HexUtil9Bytes2HexEPhi,%function
	.code	16                      @ @_ZN7HexUtil9Bytes2HexEPhi
	.thumb_func
_ZN7HexUtil9Bytes2HexEPhi:
.Lfunc_begin22:
	.file	66 "/Users/bytedance/code/my/LiveStream/AndroidPublisher/rtmplive" "src/main/cpp/HexUtil.h"
	.loc	66 15 0 is_stmt 1       @ src/main/cpp/HexUtil.h:15:0
	.fnstart
	.cfi_startproc
@ %bb.0:
	.save	{r7, lr}
	push	{r7, lr}
	.cfi_def_cfa_offset 8
	.cfi_offset lr, -4
	.cfi_offset r7, -8
	.setfp	r7, sp
	mov	r7, sp
	.cfi_def_cfa_register r7
	.pad	#56
	sub	sp, #56
	ldr	r3, .LCPI22_0
.LPC22_0:
	add	r3, pc
	ldr	r3, [r3]
	ldr	r3, [r3]
	str	r3, [sp, #52]
	str	r0, [sp, #36]
	str	r1, [sp, #32]
	str	r2, [sp, #28]
.Ltmp236:
	.loc	66 16 27 prologue_end   @ src/main/cpp/HexUtil.h:16:27
	ldr	r1, .LCPI22_1
.LPC22_1:
	add	r1, pc
	add	r2, sp, #40
	str	r0, [sp, #12]           @ 4-byte Spill
	mov	r0, r2
	bl	_ZNSt6__ndk112basic_stringIcNS_11char_traitsIcEENS_9allocatorIcEEEC2IDnEEPKc
	movs	r0, #0
.Ltmp237:
	.loc	66 17 18                @ src/main/cpp/HexUtil.h:17:18
	str	r0, [sp, #24]
	.loc	66 17 14 is_stmt 0      @ src/main/cpp/HexUtil.h:17:14
	b	.LBB22_1
.LBB22_1:                               @ =>This Inner Loop Header: Depth=1
.Ltmp238:
	.loc	66 17 25                @ src/main/cpp/HexUtil.h:17:25
	ldr	r0, [sp, #24]
	.loc	66 17 29                @ src/main/cpp/HexUtil.h:17:29
	ldr	r1, [sp, #28]
.Ltmp239:
	.loc	66 17 9                 @ src/main/cpp/HexUtil.h:17:9
	cmp	r0, r1
	bge	.LBB22_7
	b	.LBB22_2
.LBB22_2:                               @   in Loop: Header=BB22_1 Depth=1
.Ltmp240:
	.loc	66 18 38 is_stmt 1      @ src/main/cpp/HexUtil.h:18:38
	ldr	r0, [sp, #32]
	.loc	66 18 44 is_stmt 0      @ src/main/cpp/HexUtil.h:18:44
	ldr	r1, [sp, #24]
	.loc	66 18 38                @ src/main/cpp/HexUtil.h:18:38
	ldrb	r0, [r0, r1]
	.loc	66 18 47                @ src/main/cpp/HexUtil.h:18:47
	lsrs	r0, r0, #4
	.loc	66 18 27                @ src/main/cpp/HexUtil.h:18:27
	ldr	r1, .LCPI22_2
.LPC22_2:
	add	r1, pc
	ldrb	r2, [r1, r0]
.Ltmp231:
	add	r0, sp, #40
	movs	r1, #1
	.loc	66 18 17                @ src/main/cpp/HexUtil.h:18:17
	bl	_ZNSt6__ndk112basic_stringIcNS_11char_traitsIcEENS_9allocatorIcEEE6appendEjc
.Ltmp232:
	b	.LBB22_3
.LBB22_3:                               @   in Loop: Header=BB22_1 Depth=1
	.loc	66 19 37 is_stmt 1      @ src/main/cpp/HexUtil.h:19:37
	ldr	r0, [sp, #32]
	.loc	66 19 43 is_stmt 0      @ src/main/cpp/HexUtil.h:19:43
	ldr	r1, [sp, #24]
	.loc	66 19 37                @ src/main/cpp/HexUtil.h:19:37
	ldrb	r0, [r0, r1]
	.loc	66 19 46                @ src/main/cpp/HexUtil.h:19:46
	and	r0, r0, #15
	.loc	66 19 27                @ src/main/cpp/HexUtil.h:19:27
	ldr	r1, .LCPI22_3
.LPC22_3:
	add	r1, pc
	ldrb	r2, [r1, r0]
.Ltmp233:
	add	r0, sp, #40
	movs	r1, #1
	.loc	66 19 17                @ src/main/cpp/HexUtil.h:19:17
	bl	_ZNSt6__ndk112basic_stringIcNS_11char_traitsIcEENS_9allocatorIcEEE6appendEjc
.Ltmp234:
	b	.LBB22_4
.LBB22_4:                               @   in Loop: Header=BB22_1 Depth=1
	.loc	66 20 9 is_stmt 1       @ src/main/cpp/HexUtil.h:20:9
	b	.LBB22_5
.Ltmp241:
.LBB22_5:                               @   in Loop: Header=BB22_1 Depth=1
	.loc	66 17 38                @ src/main/cpp/HexUtil.h:17:38
	ldr	r0, [sp, #24]
	adds	r0, #1
	str	r0, [sp, #24]
	.loc	66 17 9 is_stmt 0       @ src/main/cpp/HexUtil.h:17:9
	b	.LBB22_1
.LBB22_6:
.Ltmp235:
.Ltmp242:
	.loc	66 22 5 is_stmt 1       @ src/main/cpp/HexUtil.h:22:5
	str	r0, [sp, #20]
	str	r1, [sp, #16]
	add	r0, sp, #40
.Ltmp243:
	.loc	66 22 5 is_stmt 0       @ src/main/cpp/HexUtil.h:22:5
	bl	_ZNSt6__ndk112basic_stringIcNS_11char_traitsIcEENS_9allocatorIcEEED2Ev
	b	.LBB22_9
.LBB22_7:
	.loc	66 0 5                  @ src/main/cpp/HexUtil.h:0:5
	add	r0, sp, #40
	.loc	66 21 16 is_stmt 1      @ src/main/cpp/HexUtil.h:21:16
	str	r0, [sp, #8]            @ 4-byte Spill
	bl	_ZNSt6__ndk14moveIRNS_12basic_stringIcNS_11char_traitsIcEENS_9allocatorIcEEEEEEONS_16remove_referenceIT_E4typeEOS9_
	ldr	r1, [sp, #12]           @ 4-byte Reload
	str	r0, [sp, #4]            @ 4-byte Spill
	mov	r0, r1
	ldr	r1, [sp, #4]            @ 4-byte Reload
	bl	_ZNSt6__ndk112basic_stringIcNS_11char_traitsIcEENS_9allocatorIcEEEC2EOS5_
	.loc	66 22 5                 @ src/main/cpp/HexUtil.h:22:5
	ldr	r0, [sp, #8]            @ 4-byte Reload
	bl	_ZNSt6__ndk112basic_stringIcNS_11char_traitsIcEENS_9allocatorIcEEED2Ev
	ldr	r0, .LCPI22_4
.LPC22_4:
	add	r0, pc
	ldr	r0, [r0]
	ldr	r0, [r0]
	ldr	r1, [sp, #52]
	cmp	r0, r1
	bne	.LBB22_10
	b	.LBB22_8
.LBB22_8:                               @ %SP_return
	add	sp, #56
	pop	{r7, pc}
.LBB22_9:
	ldr	r0, [sp, #20]
	bl	_Unwind_Resume
.LBB22_10:                              @ %CallStackCheckFailBlk
	.loc	66 0 0 is_stmt 0        @ src/main/cpp/HexUtil.h:0:0
	bl	__stack_chk_fail
.Ltmp244:
	.p2align	2
@ %bb.11:
.LCPI22_0:
.Ltmp245:
	.long	__stack_chk_guard(GOT_PREL)-((.LPC22_0+4)-.Ltmp245)
.LCPI22_1:
	.long	.L.str.14-(.LPC22_1+4)
.LCPI22_2:
	.long	.L_ZN7HexUtil9hex_tableE.const-(.LPC22_2+4)
.LCPI22_3:
	.long	.L_ZN7HexUtil9hex_tableE.const-(.LPC22_3+4)
.LCPI22_4:
.Ltmp246:
	.long	__stack_chk_guard(GOT_PREL)-((.LPC22_4+4)-.Ltmp246)
.Lfunc_end22:
	.size	_ZN7HexUtil9Bytes2HexEPhi, .Lfunc_end22-_ZN7HexUtil9Bytes2HexEPhi
	.cfi_endproc
	.globl	__gxx_personality_v0
	.personality __gxx_personality_v0
	.handlerdata
	.p2align	2
GCC_except_table22:
.Lexception6:
	.byte	255                     @ @LPStart Encoding = omit
	.byte	255                     @ @TType Encoding = omit
	.byte	1                       @ Call site Encoding = uleb128
	.uleb128 .Lcst_end6-.Lcst_begin6
.Lcst_begin6:
	.uleb128 .Lfunc_begin22-.Lfunc_begin22 @ >> Call Site 1 <<
	.uleb128 .Ltmp231-.Lfunc_begin22 @   Call between .Lfunc_begin22 and .Ltmp231
	.byte	0                       @     has no landing pad
	.byte	0                       @   On action: cleanup
	.uleb128 .Ltmp231-.Lfunc_begin22 @ >> Call Site 2 <<
	.uleb128 .Ltmp234-.Ltmp231      @   Call between .Ltmp231 and .Ltmp234
	.uleb128 .Ltmp235-.Lfunc_begin22 @     jumps to .Ltmp235
	.byte	0                       @   On action: cleanup
	.uleb128 .Ltmp234-.Lfunc_begin22 @ >> Call Site 3 <<
	.uleb128 .Lfunc_end22-.Ltmp234  @   Call between .Ltmp234 and .Lfunc_end22
	.byte	0                       @     has no landing pad
	.byte	0                       @   On action: cleanup
.Lcst_end6:
	.p2align	2
	.fnend
                                        @ -- End function
	.section	.text._ZNSt6__ndk113basic_ostreamIcNS_11char_traitsIcEEE5writeEPKci,"axG",%progbits,_ZNSt6__ndk113basic_ostreamIcNS_11char_traitsIcEEE5writeEPKci,comdat
	.weak	_ZNSt6__ndk113basic_ostreamIcNS_11char_traitsIcEEE5writeEPKci @ -- Begin function _ZNSt6__ndk113basic_ostreamIcNS_11char_traitsIcEEE5writeEPKci
	.p2align	2
	.type	_ZNSt6__ndk113basic_ostreamIcNS_11char_traitsIcEEE5writeEPKci,%function
	.code	16                      @ @_ZNSt6__ndk113basic_ostreamIcNS_11char_traitsIcEEE5writeEPKci
	.thumb_func
_ZNSt6__ndk113basic_ostreamIcNS_11char_traitsIcEEE5writeEPKci:
.Lfunc_begin23:
	.loc	64 918 0 is_stmt 1      @ Library/Android/sdk/ndk/21.4.7075529/toolchains/llvm/prebuilt/darwin-x86_64/sysroot/usr/include/c++/v1/ostream:918:0
	.fnstart
	.cfi_startproc
@ %bb.0:
	.save	{r7, lr}
	push	{r7, lr}
	.cfi_def_cfa_offset 8
	.cfi_offset lr, -4
	.cfi_offset r7, -8
	.setfp	r7, sp
	mov	r7, sp
	.cfi_def_cfa_register r7
	.pad	#56
	sub	sp, #56
	ldr	r3, .LCPI23_0
.LPC23_0:
	add	r3, pc
	ldr	r3, [r3]
	ldr	r3, [r3]
	str	r3, [sp, #52]
	str	r0, [sp, #40]
	str	r1, [sp, #36]
	str	r2, [sp, #32]
	ldr	r0, [sp, #40]
.Ltmp247:
	add	r1, sp, #44
.Ltmp265:
	.loc	64 923 16 prologue_end  @ Library/Android/sdk/ndk/21.4.7075529/toolchains/llvm/prebuilt/darwin-x86_64/sysroot/usr/include/c++/v1/ostream:923:16
	str	r0, [sp, #20]           @ 4-byte Spill
	mov	r0, r1
	ldr	r1, [sp, #20]           @ 4-byte Reload
	bl	_ZNSt6__ndk113basic_ostreamIcNS_11char_traitsIcEEE6sentryC2ERS3_
.Ltmp248:
	b	.LBB23_1
.LBB23_1:
.Ltmp250:
	.loc	64 0 16 is_stmt 0       @ Library/Android/sdk/ndk/21.4.7075529/toolchains/llvm/prebuilt/darwin-x86_64/sysroot/usr/include/c++/v1/ostream:0:16
	add	r0, sp, #44
.Ltmp266:
	.loc	64 924 13 is_stmt 1     @ Library/Android/sdk/ndk/21.4.7075529/toolchains/llvm/prebuilt/darwin-x86_64/sysroot/usr/include/c++/v1/ostream:924:13
	bl	_ZNKSt6__ndk113basic_ostreamIcNS_11char_traitsIcEEE6sentrycvbEv
.Ltmp251:
	str	r0, [sp, #16]           @ 4-byte Spill
	b	.LBB23_2
.LBB23_2:
	.loc	64 924 19 is_stmt 0     @ Library/Android/sdk/ndk/21.4.7075529/toolchains/llvm/prebuilt/darwin-x86_64/sysroot/usr/include/c++/v1/ostream:924:19
	ldr	r0, [sp, #16]           @ 4-byte Reload
	lsls	r1, r0, #31
	cmp	r1, #0
	beq	.LBB23_16
	b	.LBB23_3
.LBB23_3:
	.loc	64 924 22               @ Library/Android/sdk/ndk/21.4.7075529/toolchains/llvm/prebuilt/darwin-x86_64/sysroot/usr/include/c++/v1/ostream:924:22
	ldr	r0, [sp, #32]
.Ltmp267:
	.loc	64 924 13               @ Library/Android/sdk/ndk/21.4.7075529/toolchains/llvm/prebuilt/darwin-x86_64/sysroot/usr/include/c++/v1/ostream:924:13
	cmp	r0, #0
	beq	.LBB23_16
	b	.LBB23_4
.LBB23_4:
.Ltmp268:
	.loc	64 926 23 is_stmt 1     @ Library/Android/sdk/ndk/21.4.7075529/toolchains/llvm/prebuilt/darwin-x86_64/sysroot/usr/include/c++/v1/ostream:926:23
	ldr	r0, [sp, #20]           @ 4-byte Reload
	ldr	r1, [r0]
	ldr	r1, [r1, #-12]
	add	r0, r1
.Ltmp252:
	bl	_ZNKSt6__ndk19basic_iosIcNS_11char_traitsIcEEE5rdbufEv
.Ltmp253:
	str	r0, [sp, #12]           @ 4-byte Spill
	b	.LBB23_5
.LBB23_5:
	.loc	64 926 38 is_stmt 0     @ Library/Android/sdk/ndk/21.4.7075529/toolchains/llvm/prebuilt/darwin-x86_64/sysroot/usr/include/c++/v1/ostream:926:38
	ldr	r1, [sp, #36]
	.loc	64 926 43               @ Library/Android/sdk/ndk/21.4.7075529/toolchains/llvm/prebuilt/darwin-x86_64/sysroot/usr/include/c++/v1/ostream:926:43
	ldr	r2, [sp, #32]
.Ltmp254:
	.loc	64 926 32               @ Library/Android/sdk/ndk/21.4.7075529/toolchains/llvm/prebuilt/darwin-x86_64/sysroot/usr/include/c++/v1/ostream:926:32
	ldr	r0, [sp, #12]           @ 4-byte Reload
	bl	_ZNSt6__ndk115basic_streambufIcNS_11char_traitsIcEEE5sputnEPKci
.Ltmp255:
	str	r0, [sp, #8]            @ 4-byte Spill
	b	.LBB23_6
.LBB23_6:
	.loc	64 926 51               @ Library/Android/sdk/ndk/21.4.7075529/toolchains/llvm/prebuilt/darwin-x86_64/sysroot/usr/include/c++/v1/ostream:926:51
	ldr	r0, [sp, #32]
.Ltmp269:
	.loc	64 926 17               @ Library/Android/sdk/ndk/21.4.7075529/toolchains/llvm/prebuilt/darwin-x86_64/sysroot/usr/include/c++/v1/ostream:926:17
	ldr	r1, [sp, #8]            @ 4-byte Reload
	cmp	r1, r0
	beq	.LBB23_15
	b	.LBB23_7
.LBB23_7:
.Ltmp270:
	.loc	64 927 23 is_stmt 1     @ Library/Android/sdk/ndk/21.4.7075529/toolchains/llvm/prebuilt/darwin-x86_64/sysroot/usr/include/c++/v1/ostream:927:23
	ldr	r0, [sp, #20]           @ 4-byte Reload
	ldr	r1, [r0]
	ldr	r1, [r1, #-12]
	add	r0, r1
.Ltmp256:
	movs	r1, #1
	bl	_ZNSt6__ndk19basic_iosIcNS_11char_traitsIcEEE8setstateEj
.Ltmp257:
	b	.LBB23_8
.LBB23_8:
	.loc	64 927 17 is_stmt 0     @ Library/Android/sdk/ndk/21.4.7075529/toolchains/llvm/prebuilt/darwin-x86_64/sysroot/usr/include/c++/v1/ostream:927:17
	b	.LBB23_15
.Ltmp271:
.LBB23_9:
.Ltmp249:
	.loc	64 937 1 is_stmt 1      @ Library/Android/sdk/ndk/21.4.7075529/toolchains/llvm/prebuilt/darwin-x86_64/sysroot/usr/include/c++/v1/ostream:937:1
	str	r0, [sp, #28]
	str	r1, [sp, #24]
	b	.LBB23_11
.LBB23_10:
.Ltmp258:
.Ltmp272:
	.loc	64 937 1 is_stmt 0      @ Library/Android/sdk/ndk/21.4.7075529/toolchains/llvm/prebuilt/darwin-x86_64/sysroot/usr/include/c++/v1/ostream:937:1
	str	r0, [sp, #28]
	str	r1, [sp, #24]
	add	r0, sp, #44
.Ltmp273:
	.loc	64 930 5 is_stmt 1      @ Library/Android/sdk/ndk/21.4.7075529/toolchains/llvm/prebuilt/darwin-x86_64/sysroot/usr/include/c++/v1/ostream:930:5
	bl	_ZNSt6__ndk113basic_ostreamIcNS_11char_traitsIcEEE6sentryD2Ev
	b	.LBB23_11
.LBB23_11:
.Ltmp274:
	.loc	64 930 5 is_stmt 0      @ Library/Android/sdk/ndk/21.4.7075529/toolchains/llvm/prebuilt/darwin-x86_64/sysroot/usr/include/c++/v1/ostream:930:5
	ldr	r0, [sp, #28]
	bl	__cxa_begin_catch
.Ltmp275:
	.loc	64 933 15 is_stmt 1     @ Library/Android/sdk/ndk/21.4.7075529/toolchains/llvm/prebuilt/darwin-x86_64/sysroot/usr/include/c++/v1/ostream:933:15
	ldr	r1, [sp, #20]           @ 4-byte Reload
	ldr	r2, [r1]
	ldr	r2, [r2, #-12]
	add	r2, r1
.Ltmp259:
	str	r0, [sp, #4]            @ 4-byte Spill
	mov	r0, r2
	bl	_ZNSt6__ndk18ios_base33__set_badbit_and_consider_rethrowEv
.Ltmp260:
	b	.LBB23_12
.LBB23_12:
	.loc	64 934 5                @ Library/Android/sdk/ndk/21.4.7075529/toolchains/llvm/prebuilt/darwin-x86_64/sysroot/usr/include/c++/v1/ostream:934:5
	bl	__cxa_end_catch
	b	.LBB23_13
.Ltmp276:
.LBB23_13:
	.loc	64 0 5 is_stmt 0        @ Library/Android/sdk/ndk/21.4.7075529/toolchains/llvm/prebuilt/darwin-x86_64/sysroot/usr/include/c++/v1/ostream:0:5
	ldr	r0, .LCPI23_1
.LPC23_1:
	add	r0, pc
	ldr	r0, [r0]
	ldr	r0, [r0]
	ldr	r1, [sp, #52]
	cmp	r0, r1
	bne	.LBB23_21
	b	.LBB23_14
.LBB23_14:                              @ %SP_return
	.loc	64 936 5 is_stmt 1      @ Library/Android/sdk/ndk/21.4.7075529/toolchains/llvm/prebuilt/darwin-x86_64/sysroot/usr/include/c++/v1/ostream:936:5
	ldr	r0, [sp, #20]           @ 4-byte Reload
	add	sp, #56
	pop	{r7, pc}
.LBB23_15:
.Ltmp277:
	.loc	64 928 9                @ Library/Android/sdk/ndk/21.4.7075529/toolchains/llvm/prebuilt/darwin-x86_64/sysroot/usr/include/c++/v1/ostream:928:9
	b	.LBB23_16
.Ltmp278:
.LBB23_16:
	.loc	64 0 9 is_stmt 0        @ Library/Android/sdk/ndk/21.4.7075529/toolchains/llvm/prebuilt/darwin-x86_64/sysroot/usr/include/c++/v1/ostream:0:9
	add	r0, sp, #44
	.loc	64 930 5 is_stmt 1      @ Library/Android/sdk/ndk/21.4.7075529/toolchains/llvm/prebuilt/darwin-x86_64/sysroot/usr/include/c++/v1/ostream:930:5
	bl	_ZNSt6__ndk113basic_ostreamIcNS_11char_traitsIcEEE6sentryD2Ev
.Ltmp279:
	.loc	64 930 5 is_stmt 0      @ Library/Android/sdk/ndk/21.4.7075529/toolchains/llvm/prebuilt/darwin-x86_64/sysroot/usr/include/c++/v1/ostream:930:5
	b	.LBB23_13
.Ltmp280:
.LBB23_17:
.Ltmp261:
	.loc	64 937 1 is_stmt 1      @ Library/Android/sdk/ndk/21.4.7075529/toolchains/llvm/prebuilt/darwin-x86_64/sysroot/usr/include/c++/v1/ostream:937:1
	str	r0, [sp, #28]
	str	r1, [sp, #24]
.Ltmp262:
	.loc	64 934 5                @ Library/Android/sdk/ndk/21.4.7075529/toolchains/llvm/prebuilt/darwin-x86_64/sysroot/usr/include/c++/v1/ostream:934:5
	bl	__cxa_end_catch
.Ltmp263:
	b	.LBB23_18
.LBB23_18:
	b	.LBB23_19
.LBB23_19:
	ldr	r0, [sp, #28]
	bl	_Unwind_Resume
.LBB23_20:
.Ltmp264:
	str	r1, [sp]                @ 4-byte Spill
	bl	__clang_call_terminate
.Ltmp281:
.LBB23_21:                              @ %CallStackCheckFailBlk
	.loc	64 0 0 is_stmt 0        @ Library/Android/sdk/ndk/21.4.7075529/toolchains/llvm/prebuilt/darwin-x86_64/sysroot/usr/include/c++/v1/ostream:0:0
	bl	__stack_chk_fail
.Ltmp282:
	.p2align	2
@ %bb.22:
.LCPI23_0:
.Ltmp283:
	.long	__stack_chk_guard(GOT_PREL)-((.LPC23_0+4)-.Ltmp283)
.LCPI23_1:
.Ltmp284:
	.long	__stack_chk_guard(GOT_PREL)-((.LPC23_1+4)-.Ltmp284)
.Lfunc_end23:
	.size	_ZNSt6__ndk113basic_ostreamIcNS_11char_traitsIcEEE5writeEPKci, .Lfunc_end23-_ZNSt6__ndk113basic_ostreamIcNS_11char_traitsIcEEE5writeEPKci
	.cfi_endproc
	.globl	__gxx_personality_v0
	.personality __gxx_personality_v0
	.handlerdata
	.p2align	2
GCC_except_table23:
.Lexception7:
	.byte	255                     @ @LPStart Encoding = omit
	.byte	0                       @ @TType Encoding = absptr
	.uleb128 .Lttbase1-.Lttbaseref1
.Lttbaseref1:
	.byte	1                       @ Call site Encoding = uleb128
	.uleb128 .Lcst_end7-.Lcst_begin7
.Lcst_begin7:
	.uleb128 .Ltmp247-.Lfunc_begin23 @ >> Call Site 1 <<
	.uleb128 .Ltmp248-.Ltmp247      @   Call between .Ltmp247 and .Ltmp248
	.uleb128 .Ltmp249-.Lfunc_begin23 @     jumps to .Ltmp249
	.byte	1                       @   On action: 1
	.uleb128 .Ltmp250-.Lfunc_begin23 @ >> Call Site 2 <<
	.uleb128 .Ltmp257-.Ltmp250      @   Call between .Ltmp250 and .Ltmp257
	.uleb128 .Ltmp258-.Lfunc_begin23 @     jumps to .Ltmp258
	.byte	1                       @   On action: 1
	.uleb128 .Ltmp257-.Lfunc_begin23 @ >> Call Site 3 <<
	.uleb128 .Ltmp259-.Ltmp257      @   Call between .Ltmp257 and .Ltmp259
	.byte	0                       @     has no landing pad
	.byte	0                       @   On action: cleanup
	.uleb128 .Ltmp259-.Lfunc_begin23 @ >> Call Site 4 <<
	.uleb128 .Ltmp260-.Ltmp259      @   Call between .Ltmp259 and .Ltmp260
	.uleb128 .Ltmp261-.Lfunc_begin23 @     jumps to .Ltmp261
	.byte	0                       @   On action: cleanup
	.uleb128 .Ltmp260-.Lfunc_begin23 @ >> Call Site 5 <<
	.uleb128 .Ltmp262-.Ltmp260      @   Call between .Ltmp260 and .Ltmp262
	.byte	0                       @     has no landing pad
	.byte	0                       @   On action: cleanup
	.uleb128 .Ltmp262-.Lfunc_begin23 @ >> Call Site 6 <<
	.uleb128 .Ltmp263-.Ltmp262      @   Call between .Ltmp262 and .Ltmp263
	.uleb128 .Ltmp264-.Lfunc_begin23 @     jumps to .Ltmp264
	.byte	1                       @   On action: 1
	.uleb128 .Ltmp263-.Lfunc_begin23 @ >> Call Site 7 <<
	.uleb128 .Lfunc_end23-.Ltmp263  @   Call between .Ltmp263 and .Lfunc_end23
	.byte	0                       @     has no landing pad
	.byte	0                       @   On action: cleanup
.Lcst_end7:
	.byte	1                       @ >> Action Record 1 <<
                                        @   Catch TypeInfo 1
	.byte	0                       @   No further actions
	.p2align	2
                                        @ >> Catch TypeInfos <<
	.long	0                       @ TypeInfo 1
.Lttbase1:
	.p2align	2
	.fnend
                                        @ -- End function
	.section	.text._ZN23AVCDecoderConfiguration15GetBufferLengthEv,"axG",%progbits,_ZN23AVCDecoderConfiguration15GetBufferLengthEv,comdat
	.weak	_ZN23AVCDecoderConfiguration15GetBufferLengthEv @ -- Begin function _ZN23AVCDecoderConfiguration15GetBufferLengthEv
	.p2align	1
	.type	_ZN23AVCDecoderConfiguration15GetBufferLengthEv,%function
	.code	16                      @ @_ZN23AVCDecoderConfiguration15GetBufferLengthEv
	.thumb_func
_ZN23AVCDecoderConfiguration15GetBufferLengthEv:
.Lfunc_begin24:
	.file	67 "/Users/bytedance/code/my/LiveStream/AndroidPublisher/rtmplive" "src/main/cpp/AVCDecoderConfiguration.h"
	.loc	67 23 0 is_stmt 1       @ src/main/cpp/AVCDecoderConfiguration.h:23:0
	.fnstart
	.cfi_startproc
@ %bb.0:
	.pad	#4
	sub	sp, #4
	.cfi_def_cfa_offset 4
	str	r0, [sp]
	ldr	r0, [sp]
.Ltmp285:
	.loc	67 23 43 prologue_end   @ src/main/cpp/AVCDecoderConfiguration.h:23:43
	ldr	r0, [r0, #8]
	.loc	67 23 36 is_stmt 0      @ src/main/cpp/AVCDecoderConfiguration.h:23:36
	add	sp, #4
	bx	lr
.Ltmp286:
.Lfunc_end24:
	.size	_ZN23AVCDecoderConfiguration15GetBufferLengthEv, .Lfunc_end24-_ZN23AVCDecoderConfiguration15GetBufferLengthEv
	.cfi_endproc
	.file	68 "/Users/bytedance/code/my/LiveStream/AndroidPublisher/rtmplive" "src/main/cpp/H264Params.h"
	.fnend
                                        @ -- End function
	.section	.text._ZN23AVCDecoderConfiguration9GetBufferEv,"axG",%progbits,_ZN23AVCDecoderConfiguration9GetBufferEv,comdat
	.weak	_ZN23AVCDecoderConfiguration9GetBufferEv @ -- Begin function _ZN23AVCDecoderConfiguration9GetBufferEv
	.p2align	1
	.type	_ZN23AVCDecoderConfiguration9GetBufferEv,%function
	.code	16                      @ @_ZN23AVCDecoderConfiguration9GetBufferEv
	.thumb_func
_ZN23AVCDecoderConfiguration9GetBufferEv:
.Lfunc_begin25:
	.loc	67 21 0 is_stmt 1       @ src/main/cpp/AVCDecoderConfiguration.h:21:0
	.fnstart
	.cfi_startproc
@ %bb.0:
	.pad	#4
	sub	sp, #4
	.cfi_def_cfa_offset 4
	str	r0, [sp]
	ldr	r0, [sp]
.Ltmp287:
	.loc	67 21 42 prologue_end   @ src/main/cpp/AVCDecoderConfiguration.h:21:42
	ldr	r0, [r0, #4]
	.loc	67 21 35 is_stmt 0      @ src/main/cpp/AVCDecoderConfiguration.h:21:35
	add	sp, #4
	bx	lr
.Ltmp288:
.Lfunc_end25:
	.size	_ZN23AVCDecoderConfiguration9GetBufferEv, .Lfunc_end25-_ZN23AVCDecoderConfiguration9GetBufferEv
	.cfi_endproc
	.fnend
                                        @ -- End function
	.section	.text._ZN10RtmpClient11sendAacDataEPhil,"ax",%progbits
	.globl	_ZN10RtmpClient11sendAacDataEPhil @ -- Begin function _ZN10RtmpClient11sendAacDataEPhil
	.p2align	2
	.type	_ZN10RtmpClient11sendAacDataEPhil,%function
	.code	16                      @ @_ZN10RtmpClient11sendAacDataEPhil
	.thumb_func
_ZN10RtmpClient11sendAacDataEPhil:
.Lfunc_begin26:
	.loc	62 298 0 is_stmt 1      @ src/main/cpp/RtmpClient.cpp:298:0
	.fnstart
	.cfi_startproc
@ %bb.0:
	.save	{r4, r6, r7, lr}
	push	{r4, r6, r7, lr}
	.cfi_def_cfa_offset 16
	.cfi_offset lr, -4
	.cfi_offset r7, -8
	.cfi_offset r6, -12
	.cfi_offset r4, -16
	.setfp	r7, sp, #8
	add	r7, sp, #8
	.cfi_def_cfa r7, 8
	.pad	#80
	sub	sp, #80
	ldr	r4, .LCPI26_0
.LPC26_0:
	add	r4, pc
	ldr.w	r12, [r4]
	ldr.w	r12, [r12]
	str.w	r12, [sp, #76]
	str	r0, [sp, #56]
	str	r1, [sp, #52]
	str	r2, [sp, #48]
	str	r3, [sp, #44]
	ldr	r0, [sp, #56]
.Ltmp292:
	.loc	62 300 9 prologue_end   @ src/main/cpp/RtmpClient.cpp:300:9
	ldr	r1, [sp, #48]
.Ltmp293:
	.loc	62 300 9 is_stmt 0      @ src/main/cpp/RtmpClient.cpp:300:9
	cmp	r1, #2
	str	r0, [sp, #24]           @ 4-byte Spill
	bne	.LBB26_4
	b	.LBB26_1
.LBB26_1:
.Ltmp294:
	.loc	62 301 94 is_stmt 1     @ src/main/cpp/RtmpClient.cpp:301:94
	ldr	r1, [sp, #52]
	.loc	62 301 99 is_stmt 0     @ src/main/cpp/RtmpClient.cpp:301:99
	ldr	r2, [sp, #48]
	add	r0, sp, #64
	.loc	62 301 75               @ src/main/cpp/RtmpClient.cpp:301:75
	str	r0, [sp, #20]           @ 4-byte Spill
	bl	_ZN7HexUtil9Bytes2HexEPhi
	.loc	62 301 104              @ src/main/cpp/RtmpClient.cpp:301:104
	ldr	r0, [sp, #20]           @ 4-byte Reload
	bl	_ZNKSt6__ndk112basic_stringIcNS_11char_traitsIcEENS_9allocatorIcEEE5c_strEv
.Ltmp289:
	.loc	62 301 9                @ src/main/cpp/RtmpClient.cpp:301:9
	ldr	r1, .LCPI26_1
.LPC26_1:
	add	r1, pc
	ldr	r2, .LCPI26_2
.LPC26_2:
	add	r2, pc
	movs	r3, #4
	str	r0, [sp, #16]           @ 4-byte Spill
	mov	r0, r3
	ldr	r3, [sp, #16]           @ 4-byte Reload
	bl	__android_log_print
.Ltmp290:
	b	.LBB26_2
.LBB26_2:
	.loc	62 0 9                  @ src/main/cpp/RtmpClient.cpp:0:9
	add	r0, sp, #64
	.loc	62 301 9                @ src/main/cpp/RtmpClient.cpp:301:9
	bl	_ZNSt6__ndk112basic_stringIcNS_11char_traitsIcEENS_9allocatorIcEEED2Ev
	.loc	62 302 32 is_stmt 1     @ src/main/cpp/RtmpClient.cpp:302:32
	ldr	r1, [sp, #52]
	.loc	62 302 37 is_stmt 0     @ src/main/cpp/RtmpClient.cpp:302:37
	ldr	r2, [sp, #48]
	.loc	62 302 42               @ src/main/cpp/RtmpClient.cpp:302:42
	ldr	r3, [sp, #44]
	.loc	62 302 16               @ src/main/cpp/RtmpClient.cpp:302:16
	ldr	r0, [sp, #24]           @ 4-byte Reload
	bl	_ZN10RtmpClient15SendAACSpecificEPhil
	.loc	62 302 9                @ src/main/cpp/RtmpClient.cpp:302:9
	str	r0, [sp, #60]
	b	.LBB26_9
.LBB26_3:
.Ltmp291:
	.loc	62 331 1 is_stmt 1      @ src/main/cpp/RtmpClient.cpp:331:1
	str	r0, [sp, #40]
	str	r1, [sp, #36]
	add	r0, sp, #64
	.loc	62 301 9                @ src/main/cpp/RtmpClient.cpp:301:9
	bl	_ZNSt6__ndk112basic_stringIcNS_11char_traitsIcEENS_9allocatorIcEEED2Ev
	b	.LBB26_11
.Ltmp295:
.LBB26_4:
	.loc	62 0 9 is_stmt 0        @ src/main/cpp/RtmpClient.cpp:0:9
	movs	r0, #32
	.loc	62 304 20 is_stmt 1     @ src/main/cpp/RtmpClient.cpp:304:20
	bl	_Znwj
	.loc	62 304 24 is_stmt 0     @ src/main/cpp/RtmpClient.cpp:304:24
	vmov.i32	q8, #0x0
	mov	r1, r0
	vst1.64	{d16, d17}, [r1]!
	vst1.64	{d16, d17}, [r1]
	.loc	62 304 11               @ src/main/cpp/RtmpClient.cpp:304:11
	str	r0, [sp, #32]
	movs	r0, #2
	.loc	62 305 10 is_stmt 1     @ src/main/cpp/RtmpClient.cpp:305:10
	str	r0, [sp, #28]
	.loc	62 306 22               @ src/main/cpp/RtmpClient.cpp:306:22
	ldr	r0, [sp, #32]
	.loc	62 306 30 is_stmt 0     @ src/main/cpp/RtmpClient.cpp:306:30
	ldr	r1, [sp, #48]
	.loc	62 306 36               @ src/main/cpp/RtmpClient.cpp:306:36
	ldr	r2, [sp, #28]
	.loc	62 306 34               @ src/main/cpp/RtmpClient.cpp:306:34
	add	r1, r2
	.loc	62 306 5                @ src/main/cpp/RtmpClient.cpp:306:5
	bl	RTMPPacket_Alloc
	.loc	62 307 22 is_stmt 1     @ src/main/cpp/RtmpClient.cpp:307:22
	ldr	r1, [sp, #32]
	.loc	62 307 5 is_stmt 0      @ src/main/cpp/RtmpClient.cpp:307:5
	str	r0, [sp, #12]           @ 4-byte Spill
	mov	r0, r1
	bl	RTMPPacket_Reset
	.loc	62 308 5 is_stmt 1      @ src/main/cpp/RtmpClient.cpp:308:5
	ldr	r0, [sp, #32]
	.loc	62 308 13 is_stmt 0     @ src/main/cpp/RtmpClient.cpp:308:13
	ldr	r0, [r0, #28]
	movs	r1, #175
	.loc	62 308 23               @ src/main/cpp/RtmpClient.cpp:308:23
	strb	r1, [r0]
	.loc	62 309 5 is_stmt 1      @ src/main/cpp/RtmpClient.cpp:309:5
	ldr	r0, [sp, #32]
	.loc	62 309 13 is_stmt 0     @ src/main/cpp/RtmpClient.cpp:309:13
	ldr	r0, [r0, #28]
	movs	r1, #1
	.loc	62 309 23               @ src/main/cpp/RtmpClient.cpp:309:23
	strb	r1, [r0, #1]
	.loc	62 311 5 is_stmt 1      @ src/main/cpp/RtmpClient.cpp:311:5
	ldr	r0, [sp, #32]
	movs	r1, #8
	.loc	62 311 26 is_stmt 0     @ src/main/cpp/RtmpClient.cpp:311:26
	strb	r1, [r0, #1]
	.loc	62 312 27 is_stmt 1     @ src/main/cpp/RtmpClient.cpp:312:27
	ldr	r0, [sp, #48]
	.loc	62 312 33 is_stmt 0     @ src/main/cpp/RtmpClient.cpp:312:33
	ldr	r1, [sp, #28]
	.loc	62 312 31               @ src/main/cpp/RtmpClient.cpp:312:31
	add	r0, r1
	.loc	62 312 5                @ src/main/cpp/RtmpClient.cpp:312:5
	ldr	r1, [sp, #32]
	.loc	62 312 25               @ src/main/cpp/RtmpClient.cpp:312:25
	str	r0, [r1, #16]
	.loc	62 313 5 is_stmt 1      @ src/main/cpp/RtmpClient.cpp:313:5
	ldr	r0, [sp, #32]
	movs	r1, #5
	.loc	62 313 24 is_stmt 0     @ src/main/cpp/RtmpClient.cpp:313:24
	str	r1, [r0, #4]
	.loc	62 314 28 is_stmt 1     @ src/main/cpp/RtmpClient.cpp:314:28
	ldr	r0, [sp, #44]
	.loc	62 314 5 is_stmt 0      @ src/main/cpp/RtmpClient.cpp:314:5
	ldr	r1, [sp, #32]
	.loc	62 314 26               @ src/main/cpp/RtmpClient.cpp:314:26
	str	r0, [r1, #8]
	.loc	62 315 5 is_stmt 1      @ src/main/cpp/RtmpClient.cpp:315:5
	ldr	r0, [sp, #32]
	movs	r1, #0
	.loc	62 315 31 is_stmt 0     @ src/main/cpp/RtmpClient.cpp:315:31
	strb	r1, [r0, #2]
	.loc	62 316 5 is_stmt 1      @ src/main/cpp/RtmpClient.cpp:316:5
	ldr	r0, [sp, #32]
	.loc	62 316 26 is_stmt 0     @ src/main/cpp/RtmpClient.cpp:316:26
	strb	r1, [r0]
	.loc	62 317 29 is_stmt 1     @ src/main/cpp/RtmpClient.cpp:317:29
	ldr	r0, [sp, #24]           @ 4-byte Reload
	ldr	r1, [r0]
	.loc	62 317 36 is_stmt 0     @ src/main/cpp/RtmpClient.cpp:317:36
	ldr	r1, [r1, #24]
	.loc	62 317 5                @ src/main/cpp/RtmpClient.cpp:317:5
	ldr	r2, [sp, #32]
	.loc	62 317 27               @ src/main/cpp/RtmpClient.cpp:317:27
	str	r1, [r2, #12]
	.loc	62 320 13 is_stmt 1     @ src/main/cpp/RtmpClient.cpp:320:13
	ldr	r1, [sp, #32]
	.loc	62 320 21 is_stmt 0     @ src/main/cpp/RtmpClient.cpp:320:21
	ldr	r1, [r1, #28]
	.loc	62 320 28               @ src/main/cpp/RtmpClient.cpp:320:28
	ldr	r2, [sp, #28]
	.loc	62 320 13               @ src/main/cpp/RtmpClient.cpp:320:13
	adds	r0, r1, r2
	.loc	62 320 44               @ src/main/cpp/RtmpClient.cpp:320:44
	ldr	r1, [sp, #52]
	.loc	62 320 49               @ src/main/cpp/RtmpClient.cpp:320:49
	ldr	r2, [sp, #48]
	.loc	62 320 5                @ src/main/cpp/RtmpClient.cpp:320:5
	bl	__aeabi_memcpy
.Ltmp296:
	.loc	62 322 26 is_stmt 1     @ src/main/cpp/RtmpClient.cpp:322:26
	ldr	r1, [sp, #24]           @ 4-byte Reload
	ldr	r2, [r1]
	.loc	62 322 9 is_stmt 0      @ src/main/cpp/RtmpClient.cpp:322:9
	str	r0, [sp, #8]            @ 4-byte Spill
	mov	r0, r2
	bl	RTMP_IsConnected
.Ltmp297:
	.loc	62 322 9                @ src/main/cpp/RtmpClient.cpp:322:9
	cmp	r0, #0
	beq	.LBB26_8
	b	.LBB26_5
.LBB26_5:
.Ltmp298:
	.loc	62 323 25 is_stmt 1     @ src/main/cpp/RtmpClient.cpp:323:25
	ldr	r0, [sp, #24]           @ 4-byte Reload
	ldr	r0, [r0]
	.loc	62 323 32 is_stmt 0     @ src/main/cpp/RtmpClient.cpp:323:32
	ldr	r1, [sp, #32]
	movs	r2, #1
	.loc	62 323 9                @ src/main/cpp/RtmpClient.cpp:323:9
	bl	RTMP_SendPacket
.Ltmp299:
	.loc	62 324 13 is_stmt 1     @ src/main/cpp/RtmpClient.cpp:324:13
	ldr	r1, [sp, #24]           @ 4-byte Reload
	ldrb.w	r2, [r1, #212]
.Ltmp300:
	.loc	62 324 13 is_stmt 0     @ src/main/cpp/RtmpClient.cpp:324:13
	lsls	r2, r2, #31
	cmp	r2, #0
	beq	.LBB26_7
	b	.LBB26_6
.LBB26_6:
.Ltmp301:
	.loc	62 325 13 is_stmt 1     @ src/main/cpp/RtmpClient.cpp:325:13
	ldr	r0, [sp, #24]           @ 4-byte Reload
	adds	r0, #228
	.loc	62 325 38 is_stmt 0     @ src/main/cpp/RtmpClient.cpp:325:38
	ldr	r1, [sp, #32]
	.loc	62 325 62               @ src/main/cpp/RtmpClient.cpp:325:62
	ldr	r2, [r1, #16]
	.loc	62 325 46               @ src/main/cpp/RtmpClient.cpp:325:46
	ldr	r1, [r1, #28]
	.loc	62 325 32               @ src/main/cpp/RtmpClient.cpp:325:32
	bl	_ZNSt6__ndk113basic_ostreamIcNS_11char_traitsIcEEE5writeEPKci
	.loc	62 326 9 is_stmt 1      @ src/main/cpp/RtmpClient.cpp:326:9
	b	.LBB26_7
.Ltmp302:
.LBB26_7:
	.loc	62 327 5                @ src/main/cpp/RtmpClient.cpp:327:5
	b	.LBB26_8
.Ltmp303:
.LBB26_8:
	.loc	62 328 21               @ src/main/cpp/RtmpClient.cpp:328:21
	ldr	r0, [sp, #32]
	.loc	62 328 5 is_stmt 0      @ src/main/cpp/RtmpClient.cpp:328:5
	bl	RTMPPacket_Free
	.loc	62 329 10 is_stmt 1     @ src/main/cpp/RtmpClient.cpp:329:10
	ldr	r0, [sp, #32]
	.loc	62 329 5 is_stmt 0      @ src/main/cpp/RtmpClient.cpp:329:5
	bl	free
	movs	r0, #0
	.loc	62 330 5 is_stmt 1      @ src/main/cpp/RtmpClient.cpp:330:5
	str	r0, [sp, #60]
	b	.LBB26_9
.LBB26_9:
	.loc	62 331 1                @ src/main/cpp/RtmpClient.cpp:331:1
	ldr	r0, [sp, #60]
	ldr	r1, .LCPI26_3
.LPC26_3:
	add	r1, pc
	ldr	r1, [r1]
	ldr	r1, [r1]
	ldr	r2, [sp, #76]
	cmp	r1, r2
	str	r0, [sp, #4]            @ 4-byte Spill
	bne	.LBB26_12
	b	.LBB26_10
.LBB26_10:                              @ %SP_return
	ldr	r0, [sp, #4]            @ 4-byte Reload
	add	sp, #80
	pop	{r4, r6, r7, pc}
.LBB26_11:
.Ltmp304:
	.loc	62 301 9                @ src/main/cpp/RtmpClient.cpp:301:9
	ldr	r0, [sp, #40]
	bl	_Unwind_Resume
.Ltmp305:
.LBB26_12:                              @ %CallStackCheckFailBlk
	.loc	62 0 0 is_stmt 0        @ src/main/cpp/RtmpClient.cpp:0:0
	bl	__stack_chk_fail
.Ltmp306:
	.p2align	2
@ %bb.13:
.LCPI26_0:
.Ltmp307:
	.long	__stack_chk_guard(GOT_PREL)-((.LPC26_0+4)-.Ltmp307)
.LCPI26_1:
	.long	.L.str-(.LPC26_1+4)
.LCPI26_2:
	.long	.L.str.11-(.LPC26_2+4)
.LCPI26_3:
.Ltmp308:
	.long	__stack_chk_guard(GOT_PREL)-((.LPC26_3+4)-.Ltmp308)
.Lfunc_end26:
	.size	_ZN10RtmpClient11sendAacDataEPhil, .Lfunc_end26-_ZN10RtmpClient11sendAacDataEPhil
	.cfi_endproc
	.globl	__gxx_personality_v0
	.personality __gxx_personality_v0
	.handlerdata
	.p2align	2
GCC_except_table26:
.Lexception8:
	.byte	255                     @ @LPStart Encoding = omit
	.byte	255                     @ @TType Encoding = omit
	.byte	1                       @ Call site Encoding = uleb128
	.uleb128 .Lcst_end8-.Lcst_begin8
.Lcst_begin8:
	.uleb128 .Lfunc_begin26-.Lfunc_begin26 @ >> Call Site 1 <<
	.uleb128 .Ltmp289-.Lfunc_begin26 @   Call between .Lfunc_begin26 and .Ltmp289
	.byte	0                       @     has no landing pad
	.byte	0                       @   On action: cleanup
	.uleb128 .Ltmp289-.Lfunc_begin26 @ >> Call Site 2 <<
	.uleb128 .Ltmp290-.Ltmp289      @   Call between .Ltmp289 and .Ltmp290
	.uleb128 .Ltmp291-.Lfunc_begin26 @     jumps to .Ltmp291
	.byte	0                       @   On action: cleanup
	.uleb128 .Ltmp290-.Lfunc_begin26 @ >> Call Site 3 <<
	.uleb128 .Lfunc_end26-.Ltmp290  @   Call between .Ltmp290 and .Lfunc_end26
	.byte	0                       @     has no landing pad
	.byte	0                       @   On action: cleanup
.Lcst_end8:
	.p2align	2
	.fnend
                                        @ -- End function
	.section	.text._ZN10RtmpClient15SendAACSpecificEPhil,"ax",%progbits
	.globl	_ZN10RtmpClient15SendAACSpecificEPhil @ -- Begin function _ZN10RtmpClient15SendAACSpecificEPhil
	.p2align	1
	.type	_ZN10RtmpClient15SendAACSpecificEPhil,%function
	.code	16                      @ @_ZN10RtmpClient15SendAACSpecificEPhil
	.thumb_func
_ZN10RtmpClient15SendAACSpecificEPhil:
.Lfunc_begin27:
	.loc	62 333 0 is_stmt 1      @ src/main/cpp/RtmpClient.cpp:333:0
	.fnstart
	.cfi_startproc
@ %bb.0:
	.save	{r7, lr}
	push	{r7, lr}
	.cfi_def_cfa_offset 8
	.cfi_offset lr, -4
	.cfi_offset r7, -8
	.setfp	r7, sp
	mov	r7, sp
	.cfi_def_cfa_register r7
	.pad	#40
	sub	sp, #40
	str	r0, [sp, #36]
	str	r1, [sp, #32]
	str	r2, [sp, #28]
	str	r3, [sp, #24]
	ldr	r0, [sp, #36]
	movs	r1, #2
.Ltmp309:
	.loc	62 334 10 prologue_end  @ src/main/cpp/RtmpClient.cpp:334:10
	str	r1, [sp, #20]
	movs	r1, #32
	.loc	62 335 20               @ src/main/cpp/RtmpClient.cpp:335:20
	str	r0, [sp, #12]           @ 4-byte Spill
	mov	r0, r1
	bl	_Znwj
	.loc	62 335 24 is_stmt 0     @ src/main/cpp/RtmpClient.cpp:335:24
	vmov.i32	q8, #0x0
	mov	r1, r0
	vst1.64	{d16, d17}, [r1]!
	vst1.64	{d16, d17}, [r1]
	.loc	62 335 11               @ src/main/cpp/RtmpClient.cpp:335:11
	str	r0, [sp, #16]
	.loc	62 336 22 is_stmt 1     @ src/main/cpp/RtmpClient.cpp:336:22
	ldr	r0, [sp, #16]
	.loc	62 336 30 is_stmt 0     @ src/main/cpp/RtmpClient.cpp:336:30
	ldr	r1, [sp, #28]
	.loc	62 336 36               @ src/main/cpp/RtmpClient.cpp:336:36
	ldr	r2, [sp, #20]
	.loc	62 336 34               @ src/main/cpp/RtmpClient.cpp:336:34
	add	r1, r2
	.loc	62 336 5                @ src/main/cpp/RtmpClient.cpp:336:5
	bl	RTMPPacket_Alloc
	.loc	62 337 22 is_stmt 1     @ src/main/cpp/RtmpClient.cpp:337:22
	ldr	r1, [sp, #16]
	.loc	62 337 5 is_stmt 0      @ src/main/cpp/RtmpClient.cpp:337:5
	str	r0, [sp, #8]            @ 4-byte Spill
	mov	r0, r1
	bl	RTMPPacket_Reset
	.loc	62 339 5 is_stmt 1      @ src/main/cpp/RtmpClient.cpp:339:5
	ldr	r0, [sp, #16]
	movs	r1, #8
	.loc	62 339 26 is_stmt 0     @ src/main/cpp/RtmpClient.cpp:339:26
	strb	r1, [r0, #1]
	.loc	62 340 27 is_stmt 1     @ src/main/cpp/RtmpClient.cpp:340:27
	ldr	r0, [sp, #28]
	.loc	62 340 33 is_stmt 0     @ src/main/cpp/RtmpClient.cpp:340:33
	ldr	r1, [sp, #20]
	.loc	62 340 31               @ src/main/cpp/RtmpClient.cpp:340:31
	add	r0, r1
	.loc	62 340 5                @ src/main/cpp/RtmpClient.cpp:340:5
	ldr	r1, [sp, #16]
	.loc	62 340 25               @ src/main/cpp/RtmpClient.cpp:340:25
	str	r0, [r1, #16]
	.loc	62 341 5 is_stmt 1      @ src/main/cpp/RtmpClient.cpp:341:5
	ldr	r0, [sp, #16]
	movs	r1, #5
	.loc	62 341 24 is_stmt 0     @ src/main/cpp/RtmpClient.cpp:341:24
	str	r1, [r0, #4]
	.loc	62 342 28 is_stmt 1     @ src/main/cpp/RtmpClient.cpp:342:28
	ldr	r0, [sp, #24]
	.loc	62 342 5 is_stmt 0      @ src/main/cpp/RtmpClient.cpp:342:5
	ldr	r1, [sp, #16]
	.loc	62 342 26               @ src/main/cpp/RtmpClient.cpp:342:26
	str	r0, [r1, #8]
	.loc	62 343 5 is_stmt 1      @ src/main/cpp/RtmpClient.cpp:343:5
	ldr	r0, [sp, #16]
	movs	r1, #0
	.loc	62 343 31 is_stmt 0     @ src/main/cpp/RtmpClient.cpp:343:31
	strb	r1, [r0, #2]
	.loc	62 344 5 is_stmt 1      @ src/main/cpp/RtmpClient.cpp:344:5
	ldr	r0, [sp, #16]
	.loc	62 344 26 is_stmt 0     @ src/main/cpp/RtmpClient.cpp:344:26
	strb	r1, [r0]
	.loc	62 345 29 is_stmt 1     @ src/main/cpp/RtmpClient.cpp:345:29
	ldr	r0, [sp, #12]           @ 4-byte Reload
	ldr	r2, [r0]
	.loc	62 345 36 is_stmt 0     @ src/main/cpp/RtmpClient.cpp:345:36
	ldr	r2, [r2, #24]
	.loc	62 345 5                @ src/main/cpp/RtmpClient.cpp:345:5
	ldr	r3, [sp, #16]
	.loc	62 345 27               @ src/main/cpp/RtmpClient.cpp:345:27
	str	r2, [r3, #12]
	.loc	62 353 5 is_stmt 1      @ src/main/cpp/RtmpClient.cpp:353:5
	ldr	r2, [sp, #16]
	.loc	62 353 13 is_stmt 0     @ src/main/cpp/RtmpClient.cpp:353:13
	ldr	r2, [r2, #28]
	movs	r3, #175
	.loc	62 353 23               @ src/main/cpp/RtmpClient.cpp:353:23
	strb	r3, [r2]
	.loc	62 354 5 is_stmt 1      @ src/main/cpp/RtmpClient.cpp:354:5
	ldr	r2, [sp, #16]
	.loc	62 354 13 is_stmt 0     @ src/main/cpp/RtmpClient.cpp:354:13
	ldr	r2, [r2, #28]
	.loc	62 354 23               @ src/main/cpp/RtmpClient.cpp:354:23
	strb	r1, [r2, #1]
	.loc	62 357 13 is_stmt 1     @ src/main/cpp/RtmpClient.cpp:357:13
	ldr	r1, [sp, #16]
	.loc	62 357 21 is_stmt 0     @ src/main/cpp/RtmpClient.cpp:357:21
	ldr	r1, [r1, #28]
	.loc	62 357 28               @ src/main/cpp/RtmpClient.cpp:357:28
	ldr	r2, [sp, #20]
	.loc	62 357 13               @ src/main/cpp/RtmpClient.cpp:357:13
	adds	r0, r1, r2
	.loc	62 357 44               @ src/main/cpp/RtmpClient.cpp:357:44
	ldr	r1, [sp, #32]
	.loc	62 357 50               @ src/main/cpp/RtmpClient.cpp:357:50
	ldr	r2, [sp, #28]
	.loc	62 357 5                @ src/main/cpp/RtmpClient.cpp:357:5
	bl	__aeabi_memcpy
.Ltmp310:
	.loc	62 359 26 is_stmt 1     @ src/main/cpp/RtmpClient.cpp:359:26
	ldr	r1, [sp, #12]           @ 4-byte Reload
	ldr	r2, [r1]
	.loc	62 359 9 is_stmt 0      @ src/main/cpp/RtmpClient.cpp:359:9
	str	r0, [sp, #4]            @ 4-byte Spill
	mov	r0, r2
	bl	RTMP_IsConnected
.Ltmp311:
	.loc	62 359 9                @ src/main/cpp/RtmpClient.cpp:359:9
	cmp	r0, #0
	beq	.LBB27_4
	b	.LBB27_1
.LBB27_1:
.Ltmp312:
	.loc	62 360 25 is_stmt 1     @ src/main/cpp/RtmpClient.cpp:360:25
	ldr	r0, [sp, #12]           @ 4-byte Reload
	ldr	r0, [r0]
	.loc	62 360 32 is_stmt 0     @ src/main/cpp/RtmpClient.cpp:360:32
	ldr	r1, [sp, #16]
	movs	r2, #1
	.loc	62 360 9                @ src/main/cpp/RtmpClient.cpp:360:9
	bl	RTMP_SendPacket
.Ltmp313:
	.loc	62 361 13 is_stmt 1     @ src/main/cpp/RtmpClient.cpp:361:13
	ldr	r1, [sp, #12]           @ 4-byte Reload
	ldrb.w	r2, [r1, #212]
.Ltmp314:
	.loc	62 361 13 is_stmt 0     @ src/main/cpp/RtmpClient.cpp:361:13
	lsls	r2, r2, #31
	cmp	r2, #0
	beq	.LBB27_3
	b	.LBB27_2
.LBB27_2:
.Ltmp315:
	.loc	62 362 13 is_stmt 1     @ src/main/cpp/RtmpClient.cpp:362:13
	ldr	r0, [sp, #12]           @ 4-byte Reload
	adds	r0, #228
	.loc	62 362 38 is_stmt 0     @ src/main/cpp/RtmpClient.cpp:362:38
	ldr	r1, [sp, #16]
	.loc	62 362 62               @ src/main/cpp/RtmpClient.cpp:362:62
	ldr	r2, [r1, #16]
	.loc	62 362 46               @ src/main/cpp/RtmpClient.cpp:362:46
	ldr	r1, [r1, #28]
	.loc	62 362 32               @ src/main/cpp/RtmpClient.cpp:362:32
	bl	_ZNSt6__ndk113basic_ostreamIcNS_11char_traitsIcEEE5writeEPKci
	.loc	62 363 9 is_stmt 1      @ src/main/cpp/RtmpClient.cpp:363:9
	b	.LBB27_3
.Ltmp316:
.LBB27_3:
	.loc	62 364 5                @ src/main/cpp/RtmpClient.cpp:364:5
	b	.LBB27_4
.Ltmp317:
.LBB27_4:
	.loc	62 365 21               @ src/main/cpp/RtmpClient.cpp:365:21
	ldr	r0, [sp, #16]
	.loc	62 365 5 is_stmt 0      @ src/main/cpp/RtmpClient.cpp:365:5
	bl	RTMPPacket_Free
	.loc	62 366 10 is_stmt 1     @ src/main/cpp/RtmpClient.cpp:366:10
	ldr	r0, [sp, #16]
	.loc	62 366 5 is_stmt 0      @ src/main/cpp/RtmpClient.cpp:366:5
	bl	free
	movs	r0, #0
	.loc	62 367 5 is_stmt 1      @ src/main/cpp/RtmpClient.cpp:367:5
	add	sp, #40
	pop	{r7, pc}
.Ltmp318:
.Lfunc_end27:
	.size	_ZN10RtmpClient15SendAACSpecificEPhil, .Lfunc_end27-_ZN10RtmpClient15SendAACSpecificEPhil
	.cfi_endproc
	.fnend
                                        @ -- End function
	.section	.text._ZN10RtmpClient11sendAacSpecEPhi,"ax",%progbits
	.globl	_ZN10RtmpClient11sendAacSpecEPhi @ -- Begin function _ZN10RtmpClient11sendAacSpecEPhi
	.p2align	1
	.type	_ZN10RtmpClient11sendAacSpecEPhi,%function
	.code	16                      @ @_ZN10RtmpClient11sendAacSpecEPhi
	.thumb_func
_ZN10RtmpClient11sendAacSpecEPhi:
.Lfunc_begin28:
	.loc	62 370 0                @ src/main/cpp/RtmpClient.cpp:370:0
	.fnstart
	.cfi_startproc
@ %bb.0:
	.pad	#12
	sub	sp, #12
	.cfi_def_cfa_offset 12
	str	r0, [sp, #8]
	str	r1, [sp, #4]
	str	r2, [sp]
	movs	r0, #0
.Ltmp319:
	.loc	62 397 5 prologue_end   @ src/main/cpp/RtmpClient.cpp:397:5
	add	sp, #12
	bx	lr
.Ltmp320:
.Lfunc_end28:
	.size	_ZN10RtmpClient11sendAacSpecEPhi, .Lfunc_end28-_ZN10RtmpClient11sendAacSpecEPhi
	.cfi_endproc
	.fnend
                                        @ -- End function
	.section	.text._ZNSt6__ndk114basic_ofstreamIcNS_11char_traitsIcEEE5closeEv,"axG",%progbits,_ZNSt6__ndk114basic_ofstreamIcNS_11char_traitsIcEEE5closeEv,comdat
	.hidden	_ZNSt6__ndk114basic_ofstreamIcNS_11char_traitsIcEEE5closeEv @ -- Begin function _ZNSt6__ndk114basic_ofstreamIcNS_11char_traitsIcEEE5closeEv
	.weak	_ZNSt6__ndk114basic_ofstreamIcNS_11char_traitsIcEEE5closeEv
	.p2align	1
	.type	_ZNSt6__ndk114basic_ofstreamIcNS_11char_traitsIcEEE5closeEv,%function
	.code	16                      @ @_ZNSt6__ndk114basic_ofstreamIcNS_11char_traitsIcEEE5closeEv
	.thumb_func
_ZNSt6__ndk114basic_ofstreamIcNS_11char_traitsIcEEE5closeEv:
.Lfunc_begin29:
	.loc	22 1550 0               @ Library/Android/sdk/ndk/21.4.7075529/toolchains/llvm/prebuilt/darwin-x86_64/sysroot/usr/include/c++/v1/fstream:1550:0
	.fnstart
	.cfi_startproc
@ %bb.0:
	.save	{r7, lr}
	push	{r7, lr}
	.cfi_def_cfa_offset 8
	.cfi_offset lr, -4
	.cfi_offset r7, -8
	.setfp	r7, sp
	mov	r7, sp
	.cfi_def_cfa_register r7
	.pad	#8
	sub	sp, #8
	str	r0, [sp, #4]
	ldr	r0, [sp, #4]
.Ltmp321:
	.loc	22 1551 9 prologue_end  @ Library/Android/sdk/ndk/21.4.7075529/toolchains/llvm/prebuilt/darwin-x86_64/sysroot/usr/include/c++/v1/fstream:1551:9
	adds	r1, r0, #4
	.loc	22 1551 15 is_stmt 0    @ Library/Android/sdk/ndk/21.4.7075529/toolchains/llvm/prebuilt/darwin-x86_64/sysroot/usr/include/c++/v1/fstream:1551:15
	str	r0, [sp]                @ 4-byte Spill
	mov	r0, r1
	bl	_ZNSt6__ndk113basic_filebufIcNS_11char_traitsIcEEE5closeEv
.Ltmp322:
	.loc	22 1551 9               @ Library/Android/sdk/ndk/21.4.7075529/toolchains/llvm/prebuilt/darwin-x86_64/sysroot/usr/include/c++/v1/fstream:1551:9
	cmp	r0, #0
	bne	.LBB29_2
	b	.LBB29_1
.LBB29_1:
.Ltmp323:
	.loc	22 1552 15 is_stmt 1    @ Library/Android/sdk/ndk/21.4.7075529/toolchains/llvm/prebuilt/darwin-x86_64/sysroot/usr/include/c++/v1/fstream:1552:15
	ldr	r0, [sp]                @ 4-byte Reload
	ldr	r1, [r0]
	ldr	r1, [r1, #-12]
	add	r0, r1
	movs	r1, #4
	bl	_ZNSt6__ndk19basic_iosIcNS_11char_traitsIcEEE8setstateEj
	.loc	22 1552 9 is_stmt 0     @ Library/Android/sdk/ndk/21.4.7075529/toolchains/llvm/prebuilt/darwin-x86_64/sysroot/usr/include/c++/v1/fstream:1552:9
	b	.LBB29_2
.Ltmp324:
.LBB29_2:
	.loc	22 1553 1 is_stmt 1     @ Library/Android/sdk/ndk/21.4.7075529/toolchains/llvm/prebuilt/darwin-x86_64/sysroot/usr/include/c++/v1/fstream:1553:1
	add	sp, #8
	pop	{r7, pc}
.Ltmp325:
.Lfunc_end29:
	.size	_ZNSt6__ndk114basic_ofstreamIcNS_11char_traitsIcEEE5closeEv, .Lfunc_end29-_ZNSt6__ndk114basic_ofstreamIcNS_11char_traitsIcEEE5closeEv
	.cfi_endproc
	.fnend
                                        @ -- End function
	.section	.text._ZNSt6__ndk114basic_ofstreamIcNS_11char_traitsIcEEED2Ev,"axG",%progbits,_ZNSt6__ndk114basic_ofstreamIcNS_11char_traitsIcEEED2Ev,comdat
	.weak	_ZNSt6__ndk114basic_ofstreamIcNS_11char_traitsIcEEED2Ev @ -- Begin function _ZNSt6__ndk114basic_ofstreamIcNS_11char_traitsIcEEED2Ev
	.p2align	1
	.type	_ZNSt6__ndk114basic_ofstreamIcNS_11char_traitsIcEEED2Ev,%function
	.code	16                      @ @_ZNSt6__ndk114basic_ofstreamIcNS_11char_traitsIcEEED2Ev
	.thumb_func
_ZNSt6__ndk114basic_ofstreamIcNS_11char_traitsIcEEED2Ev:
.Lfunc_begin30:
	.loc	12 146 0                @ Library/Android/sdk/ndk/21.4.7075529/toolchains/llvm/prebuilt/darwin-x86_64/sysroot/usr/include/c++/v1/iosfwd:146:0
	.fnstart
	.cfi_startproc
@ %bb.0:
	.save	{r7, lr}
	push	{r7, lr}
	.cfi_def_cfa_offset 8
	.cfi_offset lr, -4
	.cfi_offset r7, -8
	.setfp	r7, sp
	mov	r7, sp
	.cfi_def_cfa_register r7
	.pad	#16
	sub	sp, #16
	str	r0, [sp, #12]
	str	r1, [sp, #8]
	ldr	r0, [sp, #12]
	ldr	r1, [sp, #8]
.Ltmp326:
	.loc	12 146 60 prologue_end  @ Library/Android/sdk/ndk/21.4.7075529/toolchains/llvm/prebuilt/darwin-x86_64/sysroot/usr/include/c++/v1/iosfwd:146:60
	ldr	r2, [r1]
	str	r2, [r0]
	ldr	r2, [r1, #12]
	ldr	r3, [r0]
	ldr	r3, [r3, #-12]
	str	r2, [r0, r3]
.Ltmp327:
	.loc	12 146 60 is_stmt 0     @ Library/Android/sdk/ndk/21.4.7075529/toolchains/llvm/prebuilt/darwin-x86_64/sysroot/usr/include/c++/v1/iosfwd:146:60
	adds	r2, r0, #4
	str	r0, [sp, #4]            @ 4-byte Spill
	mov	r0, r2
	str	r1, [sp]                @ 4-byte Spill
	bl	_ZNSt6__ndk113basic_filebufIcNS_11char_traitsIcEEED2Ev
	ldr	r0, [sp]                @ 4-byte Reload
	adds	r1, r0, #4
	ldr	r0, [sp, #4]            @ 4-byte Reload
	bl	_ZNSt6__ndk113basic_ostreamIcNS_11char_traitsIcEEED2Ev
.Ltmp328:
	.loc	12 146 60               @ Library/Android/sdk/ndk/21.4.7075529/toolchains/llvm/prebuilt/darwin-x86_64/sysroot/usr/include/c++/v1/iosfwd:146:60
	ldr	r0, [sp, #4]            @ 4-byte Reload
	add	sp, #16
	pop	{r7, pc}
.Ltmp329:
.Lfunc_end30:
	.size	_ZNSt6__ndk114basic_ofstreamIcNS_11char_traitsIcEEED2Ev, .Lfunc_end30-_ZNSt6__ndk114basic_ofstreamIcNS_11char_traitsIcEEED2Ev
	.cfi_endproc
	.fnend
                                        @ -- End function
	.section	.text._ZTv0_n12_NSt6__ndk114basic_ofstreamIcNS_11char_traitsIcEEED1Ev,"axG",%progbits,_ZTv0_n12_NSt6__ndk114basic_ofstreamIcNS_11char_traitsIcEEED1Ev,comdat
	.weak	_ZTv0_n12_NSt6__ndk114basic_ofstreamIcNS_11char_traitsIcEEED1Ev @ -- Begin function _ZTv0_n12_NSt6__ndk114basic_ofstreamIcNS_11char_traitsIcEEED1Ev
	.p2align	1
	.type	_ZTv0_n12_NSt6__ndk114basic_ofstreamIcNS_11char_traitsIcEEED1Ev,%function
	.code	16                      @ @_ZTv0_n12_NSt6__ndk114basic_ofstreamIcNS_11char_traitsIcEEED1Ev
	.thumb_func
_ZTv0_n12_NSt6__ndk114basic_ofstreamIcNS_11char_traitsIcEEED1Ev:
.Lfunc_begin31:
	.loc	12 0 0 is_stmt 1        @ Library/Android/sdk/ndk/21.4.7075529/toolchains/llvm/prebuilt/darwin-x86_64/sysroot/usr/include/c++/v1/iosfwd:0:0
	.fnstart
	.cfi_startproc
@ %bb.0:
	.pad	#8
	sub	sp, #8
	.cfi_def_cfa_offset 8
	str	r0, [sp]
.Ltmp330:
	ldr	r0, [sp]
	str	r0, [sp, #4]
	ldr	r1, [r0]
	ldr	r1, [r1, #-12]
	add	r0, r1
	add	sp, #8
	b	_ZNSt6__ndk114basic_ofstreamIcNS_11char_traitsIcEEED1Ev
.Ltmp331:
.Lfunc_end31:
	.size	_ZTv0_n12_NSt6__ndk114basic_ofstreamIcNS_11char_traitsIcEEED1Ev, .Lfunc_end31-_ZTv0_n12_NSt6__ndk114basic_ofstreamIcNS_11char_traitsIcEEED1Ev
	.cfi_endproc
	.fnend
                                        @ -- End function
	.section	.text._ZNSt6__ndk113basic_ostreamIcNS_11char_traitsIcEEED1Ev,"axG",%progbits,_ZNSt6__ndk113basic_ostreamIcNS_11char_traitsIcEEED1Ev,comdat
	.weak	_ZNSt6__ndk113basic_ostreamIcNS_11char_traitsIcEEED1Ev @ -- Begin function _ZNSt6__ndk113basic_ostreamIcNS_11char_traitsIcEEED1Ev
	.p2align	2
	.type	_ZNSt6__ndk113basic_ostreamIcNS_11char_traitsIcEEED1Ev,%function
	.code	16                      @ @_ZNSt6__ndk113basic_ostreamIcNS_11char_traitsIcEEED1Ev
	.thumb_func
_ZNSt6__ndk113basic_ostreamIcNS_11char_traitsIcEEED1Ev:
.Lfunc_begin32:
	.loc	64 316 0                @ Library/Android/sdk/ndk/21.4.7075529/toolchains/llvm/prebuilt/darwin-x86_64/sysroot/usr/include/c++/v1/ostream:316:0
	.fnstart
	.cfi_startproc
@ %bb.0:
	.save	{r7, lr}
	push	{r7, lr}
	.cfi_def_cfa_offset 8
	.cfi_offset lr, -4
	.cfi_offset r7, -8
	.setfp	r7, sp
	mov	r7, sp
	.cfi_def_cfa_register r7
	.pad	#8
	sub	sp, #8
	str	r0, [sp, #4]
	ldr	r0, [sp, #4]
.Ltmp332:
	.loc	64 316 1 prologue_end   @ Library/Android/sdk/ndk/21.4.7075529/toolchains/llvm/prebuilt/darwin-x86_64/sysroot/usr/include/c++/v1/ostream:316:1
	ldr	r1, .LCPI32_0
.LPC32_0:
	add	r1, pc
	ldr	r1, [r1]
	str	r0, [sp]                @ 4-byte Spill
	bl	_ZNSt6__ndk113basic_ostreamIcNS_11char_traitsIcEEED2Ev
	ldr	r0, [sp]                @ 4-byte Reload
	adds	r0, #4
	bl	_ZNSt6__ndk19basic_iosIcNS_11char_traitsIcEEED2Ev
	.loc	64 317 1                @ Library/Android/sdk/ndk/21.4.7075529/toolchains/llvm/prebuilt/darwin-x86_64/sysroot/usr/include/c++/v1/ostream:317:1
	ldr	r0, [sp]                @ 4-byte Reload
	add	sp, #8
	pop	{r7, pc}
.Ltmp333:
	.p2align	2
@ %bb.1:
	.loc	64 0 1 is_stmt 0        @ Library/Android/sdk/ndk/21.4.7075529/toolchains/llvm/prebuilt/darwin-x86_64/sysroot/usr/include/c++/v1/ostream:0:1
.LCPI32_0:
.Ltmp334:
	.long	_ZTTNSt6__ndk113basic_ostreamIcNS_11char_traitsIcEEEE(GOT_PREL)-((.LPC32_0+4)-.Ltmp334)
.Lfunc_end32:
	.size	_ZNSt6__ndk113basic_ostreamIcNS_11char_traitsIcEEED1Ev, .Lfunc_end32-_ZNSt6__ndk113basic_ostreamIcNS_11char_traitsIcEEED1Ev
	.cfi_endproc
	.fnend
                                        @ -- End function
	.section	.text._ZNSt6__ndk113basic_ostreamIcNS_11char_traitsIcEEED0Ev,"axG",%progbits,_ZNSt6__ndk113basic_ostreamIcNS_11char_traitsIcEEED0Ev,comdat
	.weak	_ZNSt6__ndk113basic_ostreamIcNS_11char_traitsIcEEED0Ev @ -- Begin function _ZNSt6__ndk113basic_ostreamIcNS_11char_traitsIcEEED0Ev
	.p2align	1
	.type	_ZNSt6__ndk113basic_ostreamIcNS_11char_traitsIcEEED0Ev,%function
	.code	16                      @ @_ZNSt6__ndk113basic_ostreamIcNS_11char_traitsIcEEED0Ev
	.thumb_func
_ZNSt6__ndk113basic_ostreamIcNS_11char_traitsIcEEED0Ev:
.Lfunc_begin33:
	.loc	64 316 0 is_stmt 1      @ Library/Android/sdk/ndk/21.4.7075529/toolchains/llvm/prebuilt/darwin-x86_64/sysroot/usr/include/c++/v1/ostream:316:0
	.fnstart
	.cfi_startproc
@ %bb.0:
	.save	{r7, lr}
	push	{r7, lr}
	.cfi_def_cfa_offset 8
	.cfi_offset lr, -4
	.cfi_offset r7, -8
	.setfp	r7, sp
	mov	r7, sp
	.cfi_def_cfa_register r7
	.pad	#8
	sub	sp, #8
	str	r0, [sp, #4]
	ldr	r0, [sp, #4]
.Ltmp335:
	.loc	64 316 1 prologue_end   @ Library/Android/sdk/ndk/21.4.7075529/toolchains/llvm/prebuilt/darwin-x86_64/sysroot/usr/include/c++/v1/ostream:316:1
	str	r0, [sp]                @ 4-byte Spill
	bl	_ZNSt6__ndk113basic_ostreamIcNS_11char_traitsIcEEED1Ev
	ldr	r0, [sp]                @ 4-byte Reload
	bl	_ZdlPv
	.loc	64 317 1                @ Library/Android/sdk/ndk/21.4.7075529/toolchains/llvm/prebuilt/darwin-x86_64/sysroot/usr/include/c++/v1/ostream:317:1
	add	sp, #8
	pop	{r7, pc}
.Ltmp336:
.Lfunc_end33:
	.size	_ZNSt6__ndk113basic_ostreamIcNS_11char_traitsIcEEED0Ev, .Lfunc_end33-_ZNSt6__ndk113basic_ostreamIcNS_11char_traitsIcEEED0Ev
	.cfi_endproc
	.fnend
                                        @ -- End function
	.section	.text._ZTv0_n12_NSt6__ndk113basic_ostreamIcNS_11char_traitsIcEEED1Ev,"axG",%progbits,_ZTv0_n12_NSt6__ndk113basic_ostreamIcNS_11char_traitsIcEEED1Ev,comdat
	.weak	_ZTv0_n12_NSt6__ndk113basic_ostreamIcNS_11char_traitsIcEEED1Ev @ -- Begin function _ZTv0_n12_NSt6__ndk113basic_ostreamIcNS_11char_traitsIcEEED1Ev
	.p2align	1
	.type	_ZTv0_n12_NSt6__ndk113basic_ostreamIcNS_11char_traitsIcEEED1Ev,%function
	.code	16                      @ @_ZTv0_n12_NSt6__ndk113basic_ostreamIcNS_11char_traitsIcEEED1Ev
	.thumb_func
_ZTv0_n12_NSt6__ndk113basic_ostreamIcNS_11char_traitsIcEEED1Ev:
.Lfunc_begin34:
	.loc	64 0 0                  @ Library/Android/sdk/ndk/21.4.7075529/toolchains/llvm/prebuilt/darwin-x86_64/sysroot/usr/include/c++/v1/ostream:0:0
	.fnstart
	.cfi_startproc
@ %bb.0:
	.pad	#8
	sub	sp, #8
	.cfi_def_cfa_offset 8
	str	r0, [sp]
.Ltmp337:
	ldr	r0, [sp]
	str	r0, [sp, #4]
	ldr	r1, [r0]
	ldr	r1, [r1, #-12]
	add	r0, r1
	add	sp, #8
	b	_ZNSt6__ndk113basic_ostreamIcNS_11char_traitsIcEEED1Ev
.Ltmp338:
.Lfunc_end34:
	.size	_ZTv0_n12_NSt6__ndk113basic_ostreamIcNS_11char_traitsIcEEED1Ev, .Lfunc_end34-_ZTv0_n12_NSt6__ndk113basic_ostreamIcNS_11char_traitsIcEEED1Ev
	.cfi_endproc
	.fnend
                                        @ -- End function
	.section	.text._ZTv0_n12_NSt6__ndk113basic_ostreamIcNS_11char_traitsIcEEED0Ev,"axG",%progbits,_ZTv0_n12_NSt6__ndk113basic_ostreamIcNS_11char_traitsIcEEED0Ev,comdat
	.weak	_ZTv0_n12_NSt6__ndk113basic_ostreamIcNS_11char_traitsIcEEED0Ev @ -- Begin function _ZTv0_n12_NSt6__ndk113basic_ostreamIcNS_11char_traitsIcEEED0Ev
	.p2align	1
	.type	_ZTv0_n12_NSt6__ndk113basic_ostreamIcNS_11char_traitsIcEEED0Ev,%function
	.code	16                      @ @_ZTv0_n12_NSt6__ndk113basic_ostreamIcNS_11char_traitsIcEEED0Ev
	.thumb_func
_ZTv0_n12_NSt6__ndk113basic_ostreamIcNS_11char_traitsIcEEED0Ev:
.Lfunc_begin35:
	.loc	64 0 0                  @ Library/Android/sdk/ndk/21.4.7075529/toolchains/llvm/prebuilt/darwin-x86_64/sysroot/usr/include/c++/v1/ostream:0:0
	.fnstart
	.cfi_startproc
@ %bb.0:
	.pad	#4
	sub	sp, #4
	.cfi_def_cfa_offset 4
	str	r0, [sp]
.Ltmp339:
	ldr	r0, [sp]
	ldr	r1, [r0]
	ldr	r1, [r1, #-12]
	add	r0, r1
	add	sp, #4
	b	_ZNSt6__ndk113basic_ostreamIcNS_11char_traitsIcEEED0Ev
.Ltmp340:
.Lfunc_end35:
	.size	_ZTv0_n12_NSt6__ndk113basic_ostreamIcNS_11char_traitsIcEEED0Ev, .Lfunc_end35-_ZTv0_n12_NSt6__ndk113basic_ostreamIcNS_11char_traitsIcEEED0Ev
	.cfi_endproc
	.fnend
                                        @ -- End function
	.section	.text._ZNSt6__ndk114basic_ofstreamIcNS_11char_traitsIcEEED0Ev,"axG",%progbits,_ZNSt6__ndk114basic_ofstreamIcNS_11char_traitsIcEEED0Ev,comdat
	.weak	_ZNSt6__ndk114basic_ofstreamIcNS_11char_traitsIcEEED0Ev @ -- Begin function _ZNSt6__ndk114basic_ofstreamIcNS_11char_traitsIcEEED0Ev
	.p2align	1
	.type	_ZNSt6__ndk114basic_ofstreamIcNS_11char_traitsIcEEED0Ev,%function
	.code	16                      @ @_ZNSt6__ndk114basic_ofstreamIcNS_11char_traitsIcEEED0Ev
	.thumb_func
_ZNSt6__ndk114basic_ofstreamIcNS_11char_traitsIcEEED0Ev:
.Lfunc_begin36:
	.loc	12 146 0                @ Library/Android/sdk/ndk/21.4.7075529/toolchains/llvm/prebuilt/darwin-x86_64/sysroot/usr/include/c++/v1/iosfwd:146:0
	.fnstart
	.cfi_startproc
@ %bb.0:
	.save	{r7, lr}
	push	{r7, lr}
	.cfi_def_cfa_offset 8
	.cfi_offset lr, -4
	.cfi_offset r7, -8
	.setfp	r7, sp
	mov	r7, sp
	.cfi_def_cfa_register r7
	.pad	#8
	sub	sp, #8
	str	r0, [sp, #4]
	ldr	r0, [sp, #4]
.Ltmp341:
	.loc	12 146 60 prologue_end  @ Library/Android/sdk/ndk/21.4.7075529/toolchains/llvm/prebuilt/darwin-x86_64/sysroot/usr/include/c++/v1/iosfwd:146:60
	str	r0, [sp]                @ 4-byte Spill
	bl	_ZNSt6__ndk114basic_ofstreamIcNS_11char_traitsIcEEED1Ev
	ldr	r0, [sp]                @ 4-byte Reload
	bl	_ZdlPv
	add	sp, #8
	pop	{r7, pc}
.Ltmp342:
.Lfunc_end36:
	.size	_ZNSt6__ndk114basic_ofstreamIcNS_11char_traitsIcEEED0Ev, .Lfunc_end36-_ZNSt6__ndk114basic_ofstreamIcNS_11char_traitsIcEEED0Ev
	.cfi_endproc
	.fnend
                                        @ -- End function
	.section	.text._ZTv0_n12_NSt6__ndk114basic_ofstreamIcNS_11char_traitsIcEEED0Ev,"axG",%progbits,_ZTv0_n12_NSt6__ndk114basic_ofstreamIcNS_11char_traitsIcEEED0Ev,comdat
	.weak	_ZTv0_n12_NSt6__ndk114basic_ofstreamIcNS_11char_traitsIcEEED0Ev @ -- Begin function _ZTv0_n12_NSt6__ndk114basic_ofstreamIcNS_11char_traitsIcEEED0Ev
	.p2align	1
	.type	_ZTv0_n12_NSt6__ndk114basic_ofstreamIcNS_11char_traitsIcEEED0Ev,%function
	.code	16                      @ @_ZTv0_n12_NSt6__ndk114basic_ofstreamIcNS_11char_traitsIcEEED0Ev
	.thumb_func
_ZTv0_n12_NSt6__ndk114basic_ofstreamIcNS_11char_traitsIcEEED0Ev:
.Lfunc_begin37:
	.loc	12 0 0                  @ Library/Android/sdk/ndk/21.4.7075529/toolchains/llvm/prebuilt/darwin-x86_64/sysroot/usr/include/c++/v1/iosfwd:0:0
	.fnstart
	.cfi_startproc
@ %bb.0:
	.pad	#4
	sub	sp, #4
	.cfi_def_cfa_offset 4
	str	r0, [sp]
.Ltmp343:
	ldr	r0, [sp]
	ldr	r1, [r0]
	ldr	r1, [r1, #-12]
	add	r0, r1
	add	sp, #4
	b	_ZNSt6__ndk114basic_ofstreamIcNS_11char_traitsIcEEED0Ev
.Ltmp344:
.Lfunc_end37:
	.size	_ZTv0_n12_NSt6__ndk114basic_ofstreamIcNS_11char_traitsIcEEED0Ev, .Lfunc_end37-_ZTv0_n12_NSt6__ndk114basic_ofstreamIcNS_11char_traitsIcEEED0Ev
	.cfi_endproc
	.fnend
                                        @ -- End function
	.section	.text._ZNSt6__ndk113basic_filebufIcNS_11char_traitsIcEEED2Ev,"axG",%progbits,_ZNSt6__ndk113basic_filebufIcNS_11char_traitsIcEEED2Ev,comdat
	.weak	_ZNSt6__ndk113basic_filebufIcNS_11char_traitsIcEEED2Ev @ -- Begin function _ZNSt6__ndk113basic_filebufIcNS_11char_traitsIcEEED2Ev
	.p2align	2
	.type	_ZNSt6__ndk113basic_filebufIcNS_11char_traitsIcEEED2Ev,%function
	.code	16                      @ @_ZNSt6__ndk113basic_filebufIcNS_11char_traitsIcEEED2Ev
	.thumb_func
_ZNSt6__ndk113basic_filebufIcNS_11char_traitsIcEEED2Ev:
.Lfunc_begin38:
	.loc	22 393 0                @ Library/Android/sdk/ndk/21.4.7075529/toolchains/llvm/prebuilt/darwin-x86_64/sysroot/usr/include/c++/v1/fstream:393:0
	.fnstart
	.cfi_startproc
@ %bb.0:
	.save	{r7, lr}
	push	{r7, lr}
	.cfi_def_cfa_offset 8
	.cfi_offset lr, -4
	.cfi_offset r7, -8
	.setfp	r7, sp
	mov	r7, sp
	.cfi_def_cfa_register r7
	.pad	#32
	sub	sp, #32
	str	r0, [sp, #24]
	ldr	r0, [sp, #24]
	str	r0, [sp, #28]
.Ltmp351:
	.loc	22 393 1 prologue_end   @ Library/Android/sdk/ndk/21.4.7075529/toolchains/llvm/prebuilt/darwin-x86_64/sysroot/usr/include/c++/v1/fstream:393:1
	ldr	r1, .LCPI38_0
.LPC38_0:
	add	r1, pc
	ldr	r1, [r1]
	adds	r1, #8
	str	r1, [r0]
.Ltmp345:
.Ltmp352:
	.loc	22 398 9                @ Library/Android/sdk/ndk/21.4.7075529/toolchains/llvm/prebuilt/darwin-x86_64/sysroot/usr/include/c++/v1/fstream:398:9
	str	r0, [sp, #12]           @ 4-byte Spill
	bl	_ZNSt6__ndk113basic_filebufIcNS_11char_traitsIcEEE5closeEv
.Ltmp346:
	b	.LBB38_1
.LBB38_1:
	.loc	22 400 5                @ Library/Android/sdk/ndk/21.4.7075529/toolchains/llvm/prebuilt/darwin-x86_64/sysroot/usr/include/c++/v1/fstream:400:5
	b	.LBB38_5
.LBB38_2:
.Ltmp347:
	.loc	22 409 1                @ Library/Android/sdk/ndk/21.4.7075529/toolchains/llvm/prebuilt/darwin-x86_64/sysroot/usr/include/c++/v1/fstream:409:1
	str	r0, [sp, #20]
	str	r1, [sp, #16]
	b	.LBB38_3
.LBB38_3:
	.loc	22 400 5                @ Library/Android/sdk/ndk/21.4.7075529/toolchains/llvm/prebuilt/darwin-x86_64/sysroot/usr/include/c++/v1/fstream:400:5
	ldr	r0, [sp, #20]
	bl	__cxa_begin_catch
.Ltmp353:
.Ltmp348:
	.loc	22 403 5                @ Library/Android/sdk/ndk/21.4.7075529/toolchains/llvm/prebuilt/darwin-x86_64/sysroot/usr/include/c++/v1/fstream:403:5
	str	r0, [sp, #8]            @ 4-byte Spill
	bl	__cxa_end_catch
.Ltmp349:
	b	.LBB38_4
.LBB38_4:
	b	.LBB38_5
.Ltmp354:
.LBB38_5:
	.loc	22 405 9                @ Library/Android/sdk/ndk/21.4.7075529/toolchains/llvm/prebuilt/darwin-x86_64/sysroot/usr/include/c++/v1/fstream:405:9
	ldr	r0, [sp, #12]           @ 4-byte Reload
	ldrb.w	r1, [r0, #88]
.Ltmp355:
	.loc	22 405 9 is_stmt 0      @ Library/Android/sdk/ndk/21.4.7075529/toolchains/llvm/prebuilt/darwin-x86_64/sysroot/usr/include/c++/v1/fstream:405:9
	lsls	r1, r1, #31
	cmp	r1, #0
	beq	.LBB38_10
	b	.LBB38_6
.LBB38_6:
.Ltmp356:
	.loc	22 406 19 is_stmt 1     @ Library/Android/sdk/ndk/21.4.7075529/toolchains/llvm/prebuilt/darwin-x86_64/sysroot/usr/include/c++/v1/fstream:406:19
	ldr	r0, [sp, #12]           @ 4-byte Reload
	ldr	r1, [r0, #32]
	.loc	22 406 9 is_stmt 0      @ Library/Android/sdk/ndk/21.4.7075529/toolchains/llvm/prebuilt/darwin-x86_64/sysroot/usr/include/c++/v1/fstream:406:9
	cmp	r1, #0
	str	r1, [sp, #4]            @ 4-byte Spill
	beq	.LBB38_8
	b	.LBB38_7
.LBB38_7:
	ldr	r0, [sp, #4]            @ 4-byte Reload
	bl	_ZdaPv
	b	.LBB38_8
.LBB38_8:
	b	.LBB38_10
.Ltmp357:
.LBB38_9:
.Ltmp350:
	.loc	22 409 1 is_stmt 1      @ Library/Android/sdk/ndk/21.4.7075529/toolchains/llvm/prebuilt/darwin-x86_64/sysroot/usr/include/c++/v1/fstream:409:1
	str	r0, [sp, #20]
	str	r1, [sp, #16]
	ldr	r0, [sp, #12]           @ 4-byte Reload
	bl	_ZNSt6__ndk115basic_streambufIcNS_11char_traitsIcEEED2Ev
	b	.LBB38_15
.LBB38_10:
.Ltmp358:
	.loc	22 407 9                @ Library/Android/sdk/ndk/21.4.7075529/toolchains/llvm/prebuilt/darwin-x86_64/sysroot/usr/include/c++/v1/fstream:407:9
	ldr	r0, [sp, #12]           @ 4-byte Reload
	ldrb.w	r1, [r0, #89]
.Ltmp359:
	.loc	22 407 9 is_stmt 0      @ Library/Android/sdk/ndk/21.4.7075529/toolchains/llvm/prebuilt/darwin-x86_64/sysroot/usr/include/c++/v1/fstream:407:9
	lsls	r1, r1, #31
	cmp	r1, #0
	beq	.LBB38_14
	b	.LBB38_11
.LBB38_11:
.Ltmp360:
	.loc	22 408 19 is_stmt 1     @ Library/Android/sdk/ndk/21.4.7075529/toolchains/llvm/prebuilt/darwin-x86_64/sysroot/usr/include/c++/v1/fstream:408:19
	ldr	r0, [sp, #12]           @ 4-byte Reload
	ldr	r1, [r0, #56]
	.loc	22 408 9 is_stmt 0      @ Library/Android/sdk/ndk/21.4.7075529/toolchains/llvm/prebuilt/darwin-x86_64/sysroot/usr/include/c++/v1/fstream:408:9
	cmp	r1, #0
	str	r1, [sp]                @ 4-byte Spill
	beq	.LBB38_13
	b	.LBB38_12
.LBB38_12:
	ldr	r0, [sp]                @ 4-byte Reload
	bl	_ZdaPv
	b	.LBB38_13
.LBB38_13:
	b	.LBB38_14
.Ltmp361:
.LBB38_14:
	.loc	22 409 1 is_stmt 1      @ Library/Android/sdk/ndk/21.4.7075529/toolchains/llvm/prebuilt/darwin-x86_64/sysroot/usr/include/c++/v1/fstream:409:1
	ldr	r0, [sp, #12]           @ 4-byte Reload
	bl	_ZNSt6__ndk115basic_streambufIcNS_11char_traitsIcEEED2Ev
.Ltmp362:
	.loc	22 409 1 is_stmt 0      @ Library/Android/sdk/ndk/21.4.7075529/toolchains/llvm/prebuilt/darwin-x86_64/sysroot/usr/include/c++/v1/fstream:409:1
	ldr	r0, [sp, #28]
	add	sp, #32
	pop	{r7, pc}
.LBB38_15:
.Ltmp363:
	.loc	22 409 1                @ Library/Android/sdk/ndk/21.4.7075529/toolchains/llvm/prebuilt/darwin-x86_64/sysroot/usr/include/c++/v1/fstream:409:1
	ldr	r0, [sp, #20]
	bl	__clang_call_terminate
.Ltmp364:
	.p2align	2
@ %bb.16:
	.loc	22 0 1                  @ Library/Android/sdk/ndk/21.4.7075529/toolchains/llvm/prebuilt/darwin-x86_64/sysroot/usr/include/c++/v1/fstream:0:1
.LCPI38_0:
.Ltmp365:
	.long	_ZTVNSt6__ndk113basic_filebufIcNS_11char_traitsIcEEEE(GOT_PREL)-((.LPC38_0+4)-.Ltmp365)
.Lfunc_end38:
	.size	_ZNSt6__ndk113basic_filebufIcNS_11char_traitsIcEEED2Ev, .Lfunc_end38-_ZNSt6__ndk113basic_filebufIcNS_11char_traitsIcEEED2Ev
	.cfi_endproc
	.globl	__gxx_personality_v0
	.personality __gxx_personality_v0
	.handlerdata
	.p2align	2
GCC_except_table38:
.Lexception9:
	.byte	255                     @ @LPStart Encoding = omit
	.byte	0                       @ @TType Encoding = absptr
	.uleb128 .Lttbase2-.Lttbaseref2
.Lttbaseref2:
	.byte	1                       @ Call site Encoding = uleb128
	.uleb128 .Lcst_end9-.Lcst_begin9
.Lcst_begin9:
	.uleb128 .Ltmp345-.Lfunc_begin38 @ >> Call Site 1 <<
	.uleb128 .Ltmp346-.Ltmp345      @   Call between .Ltmp345 and .Ltmp346
	.uleb128 .Ltmp347-.Lfunc_begin38 @     jumps to .Ltmp347
	.byte	1                       @   On action: 1
	.uleb128 .Ltmp346-.Lfunc_begin38 @ >> Call Site 2 <<
	.uleb128 .Ltmp348-.Ltmp346      @   Call between .Ltmp346 and .Ltmp348
	.byte	0                       @     has no landing pad
	.byte	0                       @   On action: cleanup
	.uleb128 .Ltmp348-.Lfunc_begin38 @ >> Call Site 3 <<
	.uleb128 .Ltmp349-.Ltmp348      @   Call between .Ltmp348 and .Ltmp349
	.uleb128 .Ltmp350-.Lfunc_begin38 @     jumps to .Ltmp350
	.byte	1                       @   On action: 1
.Lcst_end9:
	.byte	1                       @ >> Action Record 1 <<
                                        @   Catch TypeInfo 1
	.byte	0                       @   No further actions
	.p2align	2
                                        @ >> Catch TypeInfos <<
	.long	0                       @ TypeInfo 1
.Lttbase2:
	.p2align	2
	.fnend
                                        @ -- End function
	.section	.text._ZNSt6__ndk113basic_ostreamIcNS_11char_traitsIcEEED2Ev,"axG",%progbits,_ZNSt6__ndk113basic_ostreamIcNS_11char_traitsIcEEED2Ev,comdat
	.weak	_ZNSt6__ndk113basic_ostreamIcNS_11char_traitsIcEEED2Ev @ -- Begin function _ZNSt6__ndk113basic_ostreamIcNS_11char_traitsIcEEED2Ev
	.p2align	1
	.type	_ZNSt6__ndk113basic_ostreamIcNS_11char_traitsIcEEED2Ev,%function
	.code	16                      @ @_ZNSt6__ndk113basic_ostreamIcNS_11char_traitsIcEEED2Ev
	.thumb_func
_ZNSt6__ndk113basic_ostreamIcNS_11char_traitsIcEEED2Ev:
.Lfunc_begin39:
	.loc	64 316 0 is_stmt 1      @ Library/Android/sdk/ndk/21.4.7075529/toolchains/llvm/prebuilt/darwin-x86_64/sysroot/usr/include/c++/v1/ostream:316:0
	.fnstart
	.cfi_startproc
@ %bb.0:
	.pad	#8
	sub	sp, #8
	.cfi_def_cfa_offset 8
	str	r0, [sp, #4]
	str	r1, [sp]
	ldr	r0, [sp, #4]
.Ltmp366:
	.loc	64 317 1 prologue_end   @ Library/Android/sdk/ndk/21.4.7075529/toolchains/llvm/prebuilt/darwin-x86_64/sysroot/usr/include/c++/v1/ostream:317:1
	add	sp, #8
	bx	lr
.Ltmp367:
.Lfunc_end39:
	.size	_ZNSt6__ndk113basic_ostreamIcNS_11char_traitsIcEEED2Ev, .Lfunc_end39-_ZNSt6__ndk113basic_ostreamIcNS_11char_traitsIcEEED2Ev
	.cfi_endproc
	.fnend
                                        @ -- End function
	.section	.text._ZNSt6__ndk113basic_filebufIcNS_11char_traitsIcEEE5closeEv,"axG",%progbits,_ZNSt6__ndk113basic_filebufIcNS_11char_traitsIcEEE5closeEv,comdat
	.weak	_ZNSt6__ndk113basic_filebufIcNS_11char_traitsIcEEE5closeEv @ -- Begin function _ZNSt6__ndk113basic_filebufIcNS_11char_traitsIcEEE5closeEv
	.p2align	2
	.type	_ZNSt6__ndk113basic_filebufIcNS_11char_traitsIcEEE5closeEv,%function
	.code	16                      @ @_ZNSt6__ndk113basic_filebufIcNS_11char_traitsIcEEE5closeEv
	.thumb_func
_ZNSt6__ndk113basic_filebufIcNS_11char_traitsIcEEE5closeEv:
.Lfunc_begin40:
	.loc	22 692 0                @ Library/Android/sdk/ndk/21.4.7075529/toolchains/llvm/prebuilt/darwin-x86_64/sysroot/usr/include/c++/v1/fstream:692:0
	.fnstart
	.cfi_startproc
@ %bb.0:
	.save	{r7, lr}
	push	{r7, lr}
	.cfi_def_cfa_offset 8
	.cfi_offset lr, -4
	.cfi_offset r7, -8
	.setfp	r7, sp
	mov	r7, sp
	.cfi_def_cfa_register r7
	.pad	#56
	sub	sp, #56
	ldr	r1, .LCPI40_0
.LPC40_0:
	add	r1, pc
	ldr	r1, [r1]
	ldr	r1, [r1]
	str	r1, [sp, #52]
	str	r0, [sp, #36]
	ldr	r0, [sp, #36]
	movs	r1, #0
.Ltmp375:
	.loc	22 693 37 prologue_end  @ Library/Android/sdk/ndk/21.4.7075529/toolchains/llvm/prebuilt/darwin-x86_64/sysroot/usr/include/c++/v1/fstream:693:37
	str	r1, [sp, #32]
.Ltmp376:
	.loc	22 694 9                @ Library/Android/sdk/ndk/21.4.7075529/toolchains/llvm/prebuilt/darwin-x86_64/sysroot/usr/include/c++/v1/fstream:694:9
	ldr	r1, [r0, #64]
.Ltmp377:
	.loc	22 694 9 is_stmt 0      @ Library/Android/sdk/ndk/21.4.7075529/toolchains/llvm/prebuilt/darwin-x86_64/sysroot/usr/include/c++/v1/fstream:694:9
	cmp	r1, #0
	str	r0, [sp, #20]           @ 4-byte Spill
	beq	.LBB40_10
	b	.LBB40_1
.LBB40_1:
.Ltmp378:
	.loc	22 696 14 is_stmt 1     @ Library/Android/sdk/ndk/21.4.7075529/toolchains/llvm/prebuilt/darwin-x86_64/sysroot/usr/include/c++/v1/fstream:696:14
	ldr	r0, [sp, #20]           @ 4-byte Reload
	str	r0, [sp, #32]
	.loc	22 697 45               @ Library/Android/sdk/ndk/21.4.7075529/toolchains/llvm/prebuilt/darwin-x86_64/sysroot/usr/include/c++/v1/fstream:697:45
	ldr	r1, [r0, #64]
	.loc	22 697 54 is_stmt 0     @ Library/Android/sdk/ndk/21.4.7075529/toolchains/llvm/prebuilt/darwin-x86_64/sysroot/usr/include/c++/v1/fstream:697:54
	ldr	r2, .LCPI40_1
.LPC40_1:
	add	r2, pc
	ldr	r2, [r2]
	str	r2, [sp, #40]
	add	r0, sp, #44
	add	r2, sp, #40
	.loc	22 697 41               @ Library/Android/sdk/ndk/21.4.7075529/toolchains/llvm/prebuilt/darwin-x86_64/sysroot/usr/include/c++/v1/fstream:697:41
	bl	_ZNSt6__ndk110unique_ptrI7__sFILEPFiPS1_EEC2ILb1EvEES2_NS_16__dependent_typeINS_27__unique_ptr_deleter_sfinaeIS4_EEXT_EE20__good_rval_ref_typeE
.Ltmp379:
	.loc	22 698 13 is_stmt 1     @ Library/Android/sdk/ndk/21.4.7075529/toolchains/llvm/prebuilt/darwin-x86_64/sysroot/usr/include/c++/v1/fstream:698:13
	ldr	r0, [sp, #20]           @ 4-byte Reload
	ldr	r1, [r0]
	ldr	r1, [r1, #24]
.Ltmp368:
	blx	r1
.Ltmp369:
	str	r0, [sp, #16]           @ 4-byte Spill
	b	.LBB40_2
.Ltmp380:
.LBB40_2:
	.loc	22 698 13 is_stmt 0     @ Library/Android/sdk/ndk/21.4.7075529/toolchains/llvm/prebuilt/darwin-x86_64/sysroot/usr/include/c++/v1/fstream:698:13
	ldr	r0, [sp, #16]           @ 4-byte Reload
	cmp	r0, #0
	beq	.LBB40_5
	b	.LBB40_3
.LBB40_3:
	.loc	22 0 13                 @ Library/Android/sdk/ndk/21.4.7075529/toolchains/llvm/prebuilt/darwin-x86_64/sysroot/usr/include/c++/v1/fstream:0:13
	movs	r0, #0
.Ltmp381:
	.loc	22 699 18 is_stmt 1     @ Library/Android/sdk/ndk/21.4.7075529/toolchains/llvm/prebuilt/darwin-x86_64/sysroot/usr/include/c++/v1/fstream:699:18
	str	r0, [sp, #32]
	.loc	22 699 13 is_stmt 0     @ Library/Android/sdk/ndk/21.4.7075529/toolchains/llvm/prebuilt/darwin-x86_64/sysroot/usr/include/c++/v1/fstream:699:13
	b	.LBB40_5
.LBB40_4:
.Ltmp374:
	.loc	22 706 1 is_stmt 1      @ Library/Android/sdk/ndk/21.4.7075529/toolchains/llvm/prebuilt/darwin-x86_64/sysroot/usr/include/c++/v1/fstream:706:1
	str	r0, [sp, #28]
	str	r1, [sp, #24]
	add	r0, sp, #44
.Ltmp382:
	.loc	22 704 5                @ Library/Android/sdk/ndk/21.4.7075529/toolchains/llvm/prebuilt/darwin-x86_64/sysroot/usr/include/c++/v1/fstream:704:5
	bl	_ZNSt6__ndk110unique_ptrI7__sFILEPFiPS1_EED2Ev
	b	.LBB40_12
.LBB40_5:
	.loc	22 0 5 is_stmt 0        @ Library/Android/sdk/ndk/21.4.7075529/toolchains/llvm/prebuilt/darwin-x86_64/sysroot/usr/include/c++/v1/fstream:0:5
	add	r0, sp, #44
.Ltmp383:
	.loc	22 700 24 is_stmt 1     @ Library/Android/sdk/ndk/21.4.7075529/toolchains/llvm/prebuilt/darwin-x86_64/sysroot/usr/include/c++/v1/fstream:700:24
	bl	_ZNSt6__ndk110unique_ptrI7__sFILEPFiPS1_EE7releaseEv
.Ltmp370:
	.loc	22 700 13 is_stmt 0     @ Library/Android/sdk/ndk/21.4.7075529/toolchains/llvm/prebuilt/darwin-x86_64/sysroot/usr/include/c++/v1/fstream:700:13
	bl	fclose
.Ltmp371:
	str	r0, [sp, #12]           @ 4-byte Spill
	b	.LBB40_6
.Ltmp384:
.LBB40_6:
	.loc	22 700 13               @ Library/Android/sdk/ndk/21.4.7075529/toolchains/llvm/prebuilt/darwin-x86_64/sysroot/usr/include/c++/v1/fstream:700:13
	ldr	r0, [sp, #12]           @ 4-byte Reload
	cmp	r0, #0
	beq	.LBB40_8
	b	.LBB40_7
.LBB40_7:
	.loc	22 0 13                 @ Library/Android/sdk/ndk/21.4.7075529/toolchains/llvm/prebuilt/darwin-x86_64/sysroot/usr/include/c++/v1/fstream:0:13
	movs	r0, #0
.Ltmp385:
	.loc	22 701 18 is_stmt 1     @ Library/Android/sdk/ndk/21.4.7075529/toolchains/llvm/prebuilt/darwin-x86_64/sysroot/usr/include/c++/v1/fstream:701:18
	str	r0, [sp, #32]
	.loc	22 701 13 is_stmt 0     @ Library/Android/sdk/ndk/21.4.7075529/toolchains/llvm/prebuilt/darwin-x86_64/sysroot/usr/include/c++/v1/fstream:701:13
	b	.LBB40_8
.Ltmp386:
.LBB40_8:
	.loc	22 0 13                 @ Library/Android/sdk/ndk/21.4.7075529/toolchains/llvm/prebuilt/darwin-x86_64/sysroot/usr/include/c++/v1/fstream:0:13
	movs	r0, #0
	.loc	22 702 17 is_stmt 1     @ Library/Android/sdk/ndk/21.4.7075529/toolchains/llvm/prebuilt/darwin-x86_64/sysroot/usr/include/c++/v1/fstream:702:17
	ldr	r1, [sp, #20]           @ 4-byte Reload
	str	r0, [r1, #64]
	.loc	22 703 9                @ Library/Android/sdk/ndk/21.4.7075529/toolchains/llvm/prebuilt/darwin-x86_64/sysroot/usr/include/c++/v1/fstream:703:9
	ldr	r2, [r1]
	ldr	r2, [r2, #12]
.Ltmp372:
	str	r0, [sp, #8]            @ 4-byte Spill
	mov	r0, r1
	ldr	r1, [sp, #8]            @ 4-byte Reload
	ldr	r3, [sp, #8]            @ 4-byte Reload
	str	r2, [sp, #4]            @ 4-byte Spill
	mov	r2, r3
	ldr.w	r12, [sp, #4]           @ 4-byte Reload
	blx	r12
.Ltmp373:
	b	.LBB40_9
.Ltmp387:
.LBB40_9:
	.loc	22 0 9 is_stmt 0        @ Library/Android/sdk/ndk/21.4.7075529/toolchains/llvm/prebuilt/darwin-x86_64/sysroot/usr/include/c++/v1/fstream:0:9
	add	r0, sp, #44
	.loc	22 704 5 is_stmt 1      @ Library/Android/sdk/ndk/21.4.7075529/toolchains/llvm/prebuilt/darwin-x86_64/sysroot/usr/include/c++/v1/fstream:704:5
	bl	_ZNSt6__ndk110unique_ptrI7__sFILEPFiPS1_EED2Ev
.Ltmp388:
	.loc	22 704 5 is_stmt 0      @ Library/Android/sdk/ndk/21.4.7075529/toolchains/llvm/prebuilt/darwin-x86_64/sysroot/usr/include/c++/v1/fstream:704:5
	b	.LBB40_10
.Ltmp389:
.LBB40_10:
	.loc	22 705 12 is_stmt 1     @ Library/Android/sdk/ndk/21.4.7075529/toolchains/llvm/prebuilt/darwin-x86_64/sysroot/usr/include/c++/v1/fstream:705:12
	ldr	r0, [sp, #32]
	ldr	r1, .LCPI40_2
.LPC40_2:
	add	r1, pc
	ldr	r1, [r1]
	ldr	r1, [r1]
	ldr	r2, [sp, #52]
	cmp	r1, r2
	str	r0, [sp]                @ 4-byte Spill
	bne	.LBB40_13
	b	.LBB40_11
.LBB40_11:                              @ %SP_return
	.loc	22 705 5 is_stmt 0      @ Library/Android/sdk/ndk/21.4.7075529/toolchains/llvm/prebuilt/darwin-x86_64/sysroot/usr/include/c++/v1/fstream:705:5
	ldr	r0, [sp]                @ 4-byte Reload
	add	sp, #56
	pop	{r7, pc}
.LBB40_12:
.Ltmp390:
	.loc	22 704 5 is_stmt 1      @ Library/Android/sdk/ndk/21.4.7075529/toolchains/llvm/prebuilt/darwin-x86_64/sysroot/usr/include/c++/v1/fstream:704:5
	ldr	r0, [sp, #28]
	bl	_Unwind_Resume
.Ltmp391:
.LBB40_13:                              @ %CallStackCheckFailBlk
	.loc	22 0 0 is_stmt 0        @ Library/Android/sdk/ndk/21.4.7075529/toolchains/llvm/prebuilt/darwin-x86_64/sysroot/usr/include/c++/v1/fstream:0:0
	bl	__stack_chk_fail
.Ltmp392:
	.p2align	2
@ %bb.14:
.LCPI40_0:
.Ltmp393:
	.long	__stack_chk_guard(GOT_PREL)-((.LPC40_0+4)-.Ltmp393)
.LCPI40_1:
.Ltmp394:
	.long	fclose(GOT_PREL)-((.LPC40_1+4)-.Ltmp394)
.LCPI40_2:
.Ltmp395:
	.long	__stack_chk_guard(GOT_PREL)-((.LPC40_2+4)-.Ltmp395)
.Lfunc_end40:
	.size	_ZNSt6__ndk113basic_filebufIcNS_11char_traitsIcEEE5closeEv, .Lfunc_end40-_ZNSt6__ndk113basic_filebufIcNS_11char_traitsIcEEE5closeEv
	.cfi_endproc
	.globl	__gxx_personality_v0
	.personality __gxx_personality_v0
	.handlerdata
	.p2align	2
GCC_except_table40:
.Lexception10:
	.byte	255                     @ @LPStart Encoding = omit
	.byte	255                     @ @TType Encoding = omit
	.byte	1                       @ Call site Encoding = uleb128
	.uleb128 .Lcst_end10-.Lcst_begin10
.Lcst_begin10:
	.uleb128 .Ltmp368-.Lfunc_begin40 @ >> Call Site 1 <<
	.uleb128 .Ltmp373-.Ltmp368      @   Call between .Ltmp368 and .Ltmp373
	.uleb128 .Ltmp374-.Lfunc_begin40 @     jumps to .Ltmp374
	.byte	0                       @   On action: cleanup
	.uleb128 .Ltmp373-.Lfunc_begin40 @ >> Call Site 2 <<
	.uleb128 .Lfunc_end40-.Ltmp373  @   Call between .Ltmp373 and .Lfunc_end40
	.byte	0                       @     has no landing pad
	.byte	0                       @   On action: cleanup
.Lcst_end10:
	.p2align	2
	.fnend
                                        @ -- End function
	.section	.text._ZNSt6__ndk113basic_filebufIcNS_11char_traitsIcEEED0Ev,"axG",%progbits,_ZNSt6__ndk113basic_filebufIcNS_11char_traitsIcEEED0Ev,comdat
	.weak	_ZNSt6__ndk113basic_filebufIcNS_11char_traitsIcEEED0Ev @ -- Begin function _ZNSt6__ndk113basic_filebufIcNS_11char_traitsIcEEED0Ev
	.p2align	1
	.type	_ZNSt6__ndk113basic_filebufIcNS_11char_traitsIcEEED0Ev,%function
	.code	16                      @ @_ZNSt6__ndk113basic_filebufIcNS_11char_traitsIcEEED0Ev
	.thumb_func
_ZNSt6__ndk113basic_filebufIcNS_11char_traitsIcEEED0Ev:
.Lfunc_begin41:
	.loc	22 393 0 is_stmt 1      @ Library/Android/sdk/ndk/21.4.7075529/toolchains/llvm/prebuilt/darwin-x86_64/sysroot/usr/include/c++/v1/fstream:393:0
	.fnstart
	.cfi_startproc
@ %bb.0:
	.save	{r7, lr}
	push	{r7, lr}
	.cfi_def_cfa_offset 8
	.cfi_offset lr, -4
	.cfi_offset r7, -8
	.setfp	r7, sp
	mov	r7, sp
	.cfi_def_cfa_register r7
	.pad	#8
	sub	sp, #8
	str	r0, [sp, #4]
	ldr	r0, [sp, #4]
.Ltmp396:
	.loc	22 393 1 prologue_end   @ Library/Android/sdk/ndk/21.4.7075529/toolchains/llvm/prebuilt/darwin-x86_64/sysroot/usr/include/c++/v1/fstream:393:1
	str	r0, [sp]                @ 4-byte Spill
	bl	_ZNSt6__ndk113basic_filebufIcNS_11char_traitsIcEEED2Ev
	ldr	r0, [sp]                @ 4-byte Reload
	bl	_ZdlPv
	.loc	22 409 1                @ Library/Android/sdk/ndk/21.4.7075529/toolchains/llvm/prebuilt/darwin-x86_64/sysroot/usr/include/c++/v1/fstream:409:1
	add	sp, #8
	pop	{r7, pc}
.Ltmp397:
.Lfunc_end41:
	.size	_ZNSt6__ndk113basic_filebufIcNS_11char_traitsIcEEED0Ev, .Lfunc_end41-_ZNSt6__ndk113basic_filebufIcNS_11char_traitsIcEEED0Ev
	.cfi_endproc
	.fnend
                                        @ -- End function
	.section	.text._ZNSt6__ndk113basic_filebufIcNS_11char_traitsIcEEE5imbueERKNS_6localeE,"axG",%progbits,_ZNSt6__ndk113basic_filebufIcNS_11char_traitsIcEEE5imbueERKNS_6localeE,comdat
	.weak	_ZNSt6__ndk113basic_filebufIcNS_11char_traitsIcEEE5imbueERKNS_6localeE @ -- Begin function _ZNSt6__ndk113basic_filebufIcNS_11char_traitsIcEEE5imbueERKNS_6localeE
	.p2align	1
	.type	_ZNSt6__ndk113basic_filebufIcNS_11char_traitsIcEEE5imbueERKNS_6localeE,%function
	.code	16                      @ @_ZNSt6__ndk113basic_filebufIcNS_11char_traitsIcEEE5imbueERKNS_6localeE
	.thumb_func
_ZNSt6__ndk113basic_filebufIcNS_11char_traitsIcEEE5imbueERKNS_6localeE:
.Lfunc_begin42:
	.loc	22 1047 0               @ Library/Android/sdk/ndk/21.4.7075529/toolchains/llvm/prebuilt/darwin-x86_64/sysroot/usr/include/c++/v1/fstream:1047:0
	.fnstart
	.cfi_startproc
@ %bb.0:
	.save	{r7, lr}
	push	{r7, lr}
	.cfi_def_cfa_offset 8
	.cfi_offset lr, -4
	.cfi_offset r7, -8
	.setfp	r7, sp
	mov	r7, sp
	.cfi_def_cfa_register r7
	.pad	#32
	sub	sp, #32
	str	r0, [sp, #28]
	str	r1, [sp, #24]
	ldr	r0, [sp, #28]
.Ltmp398:
	.loc	22 1048 5 prologue_end  @ Library/Android/sdk/ndk/21.4.7075529/toolchains/llvm/prebuilt/darwin-x86_64/sysroot/usr/include/c++/v1/fstream:1048:5
	ldr	r1, [r0]
	ldr	r1, [r1, #24]
	str	r0, [sp, #16]           @ 4-byte Spill
	blx	r1
	.loc	22 1049 63              @ Library/Android/sdk/ndk/21.4.7075529/toolchains/llvm/prebuilt/darwin-x86_64/sysroot/usr/include/c++/v1/fstream:1049:63
	ldr	r1, [sp, #24]
	.loc	22 1049 14 is_stmt 0    @ Library/Android/sdk/ndk/21.4.7075529/toolchains/llvm/prebuilt/darwin-x86_64/sysroot/usr/include/c++/v1/fstream:1049:14
	str	r0, [sp, #12]           @ 4-byte Spill
	mov	r0, r1
	bl	_ZNSt6__ndk19use_facetINS_7codecvtIcc9mbstate_tEEEERKT_RKNS_6localeE
	.loc	22 1049 11              @ Library/Android/sdk/ndk/21.4.7075529/toolchains/llvm/prebuilt/darwin-x86_64/sysroot/usr/include/c++/v1/fstream:1049:11
	ldr	r1, [sp, #16]           @ 4-byte Reload
	str	r0, [r1, #68]
	.loc	22 1050 22 is_stmt 1    @ Library/Android/sdk/ndk/21.4.7075529/toolchains/llvm/prebuilt/darwin-x86_64/sysroot/usr/include/c++/v1/fstream:1050:22
	ldrb.w	r0, [r1, #90]
	.loc	22 1050 10 is_stmt 0    @ Library/Android/sdk/ndk/21.4.7075529/toolchains/llvm/prebuilt/darwin-x86_64/sysroot/usr/include/c++/v1/fstream:1050:10
	and	r0, r0, #1
	strb	r0, [r7, #-9]
	.loc	22 1051 24 is_stmt 1    @ Library/Android/sdk/ndk/21.4.7075529/toolchains/llvm/prebuilt/darwin-x86_64/sysroot/usr/include/c++/v1/fstream:1051:24
	ldr	r0, [r1, #68]
	.loc	22 1051 31 is_stmt 0    @ Library/Android/sdk/ndk/21.4.7075529/toolchains/llvm/prebuilt/darwin-x86_64/sysroot/usr/include/c++/v1/fstream:1051:31
	bl	_ZNKSt6__ndk17codecvtIcc9mbstate_tE13always_noconvEv
	.loc	22 1051 22              @ Library/Android/sdk/ndk/21.4.7075529/toolchains/llvm/prebuilt/darwin-x86_64/sysroot/usr/include/c++/v1/fstream:1051:22
	ldr	r1, [sp, #16]           @ 4-byte Reload
	strb.w	r0, [r1, #90]
.Ltmp399:
	.loc	22 1052 9 is_stmt 1     @ Library/Android/sdk/ndk/21.4.7075529/toolchains/llvm/prebuilt/darwin-x86_64/sysroot/usr/include/c++/v1/fstream:1052:9
	ldrb	r0, [r7, #-9]
	and	r0, r0, #1
	.loc	22 1052 22 is_stmt 0    @ Library/Android/sdk/ndk/21.4.7075529/toolchains/llvm/prebuilt/darwin-x86_64/sysroot/usr/include/c++/v1/fstream:1052:22
	ldrb.w	r2, [r1, #90]
	and	r2, r2, #1
.Ltmp400:
	.loc	22 1052 9               @ Library/Android/sdk/ndk/21.4.7075529/toolchains/llvm/prebuilt/darwin-x86_64/sysroot/usr/include/c++/v1/fstream:1052:9
	cmp	r0, r2
	beq	.LBB42_13
	b	.LBB42_1
.LBB42_1:
	.loc	22 0 9                  @ Library/Android/sdk/ndk/21.4.7075529/toolchains/llvm/prebuilt/darwin-x86_64/sysroot/usr/include/c++/v1/fstream:0:9
	movs	r0, #0
.Ltmp401:
	.loc	22 1054 15 is_stmt 1    @ Library/Android/sdk/ndk/21.4.7075529/toolchains/llvm/prebuilt/darwin-x86_64/sysroot/usr/include/c++/v1/fstream:1054:15
	ldr	r1, [sp, #16]           @ 4-byte Reload
	str	r0, [sp, #8]            @ 4-byte Spill
	mov	r0, r1
	ldr	r1, [sp, #8]            @ 4-byte Reload
	ldr	r2, [sp, #8]            @ 4-byte Reload
	ldr	r3, [sp, #8]            @ 4-byte Reload
	bl	_ZNSt6__ndk115basic_streambufIcNS_11char_traitsIcEEE4setgEPcS4_S4_
	.loc	22 1055 15              @ Library/Android/sdk/ndk/21.4.7075529/toolchains/llvm/prebuilt/darwin-x86_64/sysroot/usr/include/c++/v1/fstream:1055:15
	ldr	r0, [sp, #16]           @ 4-byte Reload
	ldr	r1, [sp, #8]            @ 4-byte Reload
	ldr	r2, [sp, #8]            @ 4-byte Reload
	bl	_ZNSt6__ndk115basic_streambufIcNS_11char_traitsIcEEE4setpEPcS4_
.Ltmp402:
	.loc	22 1057 13              @ Library/Android/sdk/ndk/21.4.7075529/toolchains/llvm/prebuilt/darwin-x86_64/sysroot/usr/include/c++/v1/fstream:1057:13
	ldr	r0, [sp, #16]           @ 4-byte Reload
	ldrb.w	r1, [r0, #90]
.Ltmp403:
	.loc	22 1057 13 is_stmt 0    @ Library/Android/sdk/ndk/21.4.7075529/toolchains/llvm/prebuilt/darwin-x86_64/sysroot/usr/include/c++/v1/fstream:1057:13
	lsls	r1, r1, #31
	cmp	r1, #0
	beq	.LBB42_7
	b	.LBB42_2
.LBB42_2:
.Ltmp404:
	.loc	22 1059 17 is_stmt 1    @ Library/Android/sdk/ndk/21.4.7075529/toolchains/llvm/prebuilt/darwin-x86_64/sysroot/usr/include/c++/v1/fstream:1059:17
	ldr	r0, [sp, #16]           @ 4-byte Reload
	ldrb.w	r1, [r0, #88]
.Ltmp405:
	.loc	22 1059 17 is_stmt 0    @ Library/Android/sdk/ndk/21.4.7075529/toolchains/llvm/prebuilt/darwin-x86_64/sysroot/usr/include/c++/v1/fstream:1059:17
	lsls	r1, r1, #31
	cmp	r1, #0
	beq	.LBB42_6
	b	.LBB42_3
.LBB42_3:
.Ltmp406:
	.loc	22 1060 27 is_stmt 1    @ Library/Android/sdk/ndk/21.4.7075529/toolchains/llvm/prebuilt/darwin-x86_64/sysroot/usr/include/c++/v1/fstream:1060:27
	ldr	r0, [sp, #16]           @ 4-byte Reload
	ldr	r1, [r0, #32]
	.loc	22 1060 17 is_stmt 0    @ Library/Android/sdk/ndk/21.4.7075529/toolchains/llvm/prebuilt/darwin-x86_64/sysroot/usr/include/c++/v1/fstream:1060:17
	cmp	r1, #0
	str	r1, [sp, #4]            @ 4-byte Spill
	beq	.LBB42_5
	b	.LBB42_4
.LBB42_4:
	ldr	r0, [sp, #4]            @ 4-byte Reload
	bl	_ZdaPv
	b	.LBB42_5
.LBB42_5:
	b	.LBB42_6
.Ltmp407:
.LBB42_6:
	.loc	22 1061 26 is_stmt 1    @ Library/Android/sdk/ndk/21.4.7075529/toolchains/llvm/prebuilt/darwin-x86_64/sysroot/usr/include/c++/v1/fstream:1061:26
	ldr	r0, [sp, #16]           @ 4-byte Reload
	ldrb.w	r1, [r0, #89]
	.loc	22 1061 24 is_stmt 0    @ Library/Android/sdk/ndk/21.4.7075529/toolchains/llvm/prebuilt/darwin-x86_64/sysroot/usr/include/c++/v1/fstream:1061:24
	and	r1, r1, #1
	strb.w	r1, [r0, #88]
	.loc	22 1062 22 is_stmt 1    @ Library/Android/sdk/ndk/21.4.7075529/toolchains/llvm/prebuilt/darwin-x86_64/sysroot/usr/include/c++/v1/fstream:1062:22
	ldr	r1, [r0, #60]
	.loc	22 1062 20 is_stmt 0    @ Library/Android/sdk/ndk/21.4.7075529/toolchains/llvm/prebuilt/darwin-x86_64/sysroot/usr/include/c++/v1/fstream:1062:20
	str	r1, [r0, #52]
	.loc	22 1063 32 is_stmt 1    @ Library/Android/sdk/ndk/21.4.7075529/toolchains/llvm/prebuilt/darwin-x86_64/sysroot/usr/include/c++/v1/fstream:1063:32
	ldr	r1, [r0, #56]
	.loc	22 1063 23 is_stmt 0    @ Library/Android/sdk/ndk/21.4.7075529/toolchains/llvm/prebuilt/darwin-x86_64/sysroot/usr/include/c++/v1/fstream:1063:23
	str	r1, [r0, #32]
	movs	r1, #0
	.loc	22 1064 20 is_stmt 1    @ Library/Android/sdk/ndk/21.4.7075529/toolchains/llvm/prebuilt/darwin-x86_64/sysroot/usr/include/c++/v1/fstream:1064:20
	str	r1, [r0, #60]
	.loc	22 1065 23              @ Library/Android/sdk/ndk/21.4.7075529/toolchains/llvm/prebuilt/darwin-x86_64/sysroot/usr/include/c++/v1/fstream:1065:23
	str	r1, [r0, #56]
	.loc	22 1066 24              @ Library/Android/sdk/ndk/21.4.7075529/toolchains/llvm/prebuilt/darwin-x86_64/sysroot/usr/include/c++/v1/fstream:1066:24
	strb.w	r1, [r0, #89]
	.loc	22 1067 9               @ Library/Android/sdk/ndk/21.4.7075529/toolchains/llvm/prebuilt/darwin-x86_64/sysroot/usr/include/c++/v1/fstream:1067:9
	b	.LBB42_12
.Ltmp408:
.LBB42_7:
	.loc	22 1070 18              @ Library/Android/sdk/ndk/21.4.7075529/toolchains/llvm/prebuilt/darwin-x86_64/sysroot/usr/include/c++/v1/fstream:1070:18
	ldr	r0, [sp, #16]           @ 4-byte Reload
	ldrb.w	r1, [r0, #88]
	.loc	22 1070 29 is_stmt 0    @ Library/Android/sdk/ndk/21.4.7075529/toolchains/llvm/prebuilt/darwin-x86_64/sysroot/usr/include/c++/v1/fstream:1070:29
	lsls	r1, r1, #31
	cmp	r1, #0
	bne	.LBB42_10
	b	.LBB42_8
.LBB42_8:
	.loc	22 1070 32              @ Library/Android/sdk/ndk/21.4.7075529/toolchains/llvm/prebuilt/darwin-x86_64/sysroot/usr/include/c++/v1/fstream:1070:32
	ldr	r0, [sp, #16]           @ 4-byte Reload
	ldr	r1, [r0, #32]
	.loc	22 1070 45              @ Library/Android/sdk/ndk/21.4.7075529/toolchains/llvm/prebuilt/darwin-x86_64/sysroot/usr/include/c++/v1/fstream:1070:45
	add.w	r2, r0, #44
.Ltmp409:
	.loc	22 1070 17              @ Library/Android/sdk/ndk/21.4.7075529/toolchains/llvm/prebuilt/darwin-x86_64/sysroot/usr/include/c++/v1/fstream:1070:17
	cmp	r1, r2
	beq	.LBB42_10
	b	.LBB42_9
.LBB42_9:
.Ltmp410:
	.loc	22 1072 26 is_stmt 1    @ Library/Android/sdk/ndk/21.4.7075529/toolchains/llvm/prebuilt/darwin-x86_64/sysroot/usr/include/c++/v1/fstream:1072:26
	ldr	r0, [sp, #16]           @ 4-byte Reload
	ldr	r1, [r0, #52]
	.loc	22 1072 24 is_stmt 0    @ Library/Android/sdk/ndk/21.4.7075529/toolchains/llvm/prebuilt/darwin-x86_64/sysroot/usr/include/c++/v1/fstream:1072:24
	str	r1, [r0, #60]
	.loc	22 1073 41 is_stmt 1    @ Library/Android/sdk/ndk/21.4.7075529/toolchains/llvm/prebuilt/darwin-x86_64/sysroot/usr/include/c++/v1/fstream:1073:41
	ldr	r1, [r0, #32]
	.loc	22 1073 27 is_stmt 0    @ Library/Android/sdk/ndk/21.4.7075529/toolchains/llvm/prebuilt/darwin-x86_64/sysroot/usr/include/c++/v1/fstream:1073:27
	str	r1, [r0, #56]
	movs	r1, #0
	.loc	22 1074 28 is_stmt 1    @ Library/Android/sdk/ndk/21.4.7075529/toolchains/llvm/prebuilt/darwin-x86_64/sysroot/usr/include/c++/v1/fstream:1074:28
	strb.w	r1, [r0, #89]
	.loc	22 1075 38              @ Library/Android/sdk/ndk/21.4.7075529/toolchains/llvm/prebuilt/darwin-x86_64/sysroot/usr/include/c++/v1/fstream:1075:38
	ldr	r0, [r0, #52]
	.loc	22 1075 29 is_stmt 0    @ Library/Android/sdk/ndk/21.4.7075529/toolchains/llvm/prebuilt/darwin-x86_64/sysroot/usr/include/c++/v1/fstream:1075:29
	bl	_Znaj
	.loc	22 1075 27              @ Library/Android/sdk/ndk/21.4.7075529/toolchains/llvm/prebuilt/darwin-x86_64/sysroot/usr/include/c++/v1/fstream:1075:27
	ldr	r1, [sp, #16]           @ 4-byte Reload
	str	r0, [r1, #32]
	movs	r0, #1
	.loc	22 1076 28 is_stmt 1    @ Library/Android/sdk/ndk/21.4.7075529/toolchains/llvm/prebuilt/darwin-x86_64/sysroot/usr/include/c++/v1/fstream:1076:28
	strb.w	r0, [r1, #88]
	.loc	22 1077 13              @ Library/Android/sdk/ndk/21.4.7075529/toolchains/llvm/prebuilt/darwin-x86_64/sysroot/usr/include/c++/v1/fstream:1077:13
	b	.LBB42_11
.Ltmp411:
.LBB42_10:
	.loc	22 1080 26              @ Library/Android/sdk/ndk/21.4.7075529/toolchains/llvm/prebuilt/darwin-x86_64/sysroot/usr/include/c++/v1/fstream:1080:26
	ldr	r0, [sp, #16]           @ 4-byte Reload
	ldr	r1, [r0, #52]
	.loc	22 1080 24 is_stmt 0    @ Library/Android/sdk/ndk/21.4.7075529/toolchains/llvm/prebuilt/darwin-x86_64/sysroot/usr/include/c++/v1/fstream:1080:24
	str	r1, [r0, #60]
	.loc	22 1081 43 is_stmt 1    @ Library/Android/sdk/ndk/21.4.7075529/toolchains/llvm/prebuilt/darwin-x86_64/sysroot/usr/include/c++/v1/fstream:1081:43
	ldr	r0, [r0, #60]
	.loc	22 1081 29 is_stmt 0    @ Library/Android/sdk/ndk/21.4.7075529/toolchains/llvm/prebuilt/darwin-x86_64/sysroot/usr/include/c++/v1/fstream:1081:29
	bl	_Znaj
	.loc	22 1081 27              @ Library/Android/sdk/ndk/21.4.7075529/toolchains/llvm/prebuilt/darwin-x86_64/sysroot/usr/include/c++/v1/fstream:1081:27
	ldr	r1, [sp, #16]           @ 4-byte Reload
	str	r0, [r1, #56]
	movs	r0, #1
	.loc	22 1082 28 is_stmt 1    @ Library/Android/sdk/ndk/21.4.7075529/toolchains/llvm/prebuilt/darwin-x86_64/sysroot/usr/include/c++/v1/fstream:1082:28
	strb.w	r0, [r1, #89]
	b	.LBB42_11
.Ltmp412:
.LBB42_11:
	.loc	22 0 28 is_stmt 0       @ Library/Android/sdk/ndk/21.4.7075529/toolchains/llvm/prebuilt/darwin-x86_64/sysroot/usr/include/c++/v1/fstream:0:28
	b	.LBB42_12
.LBB42_12:
	.loc	22 1085 5 is_stmt 1     @ Library/Android/sdk/ndk/21.4.7075529/toolchains/llvm/prebuilt/darwin-x86_64/sysroot/usr/include/c++/v1/fstream:1085:5
	b	.LBB42_13
.Ltmp413:
.LBB42_13:
	.loc	22 1086 1               @ Library/Android/sdk/ndk/21.4.7075529/toolchains/llvm/prebuilt/darwin-x86_64/sysroot/usr/include/c++/v1/fstream:1086:1
	add	sp, #32
	pop	{r7, pc}
.Ltmp414:
.Lfunc_end42:
	.size	_ZNSt6__ndk113basic_filebufIcNS_11char_traitsIcEEE5imbueERKNS_6localeE, .Lfunc_end42-_ZNSt6__ndk113basic_filebufIcNS_11char_traitsIcEEE5imbueERKNS_6localeE
	.cfi_endproc
	.fnend
                                        @ -- End function
	.section	.text._ZNSt6__ndk113basic_filebufIcNS_11char_traitsIcEEE6setbufEPci,"axG",%progbits,_ZNSt6__ndk113basic_filebufIcNS_11char_traitsIcEEE6setbufEPci,comdat
	.weak	_ZNSt6__ndk113basic_filebufIcNS_11char_traitsIcEEE6setbufEPci @ -- Begin function _ZNSt6__ndk113basic_filebufIcNS_11char_traitsIcEEE6setbufEPci
	.p2align	2
	.type	_ZNSt6__ndk113basic_filebufIcNS_11char_traitsIcEEE6setbufEPci,%function
	.code	16                      @ @_ZNSt6__ndk113basic_filebufIcNS_11char_traitsIcEEE6setbufEPci
	.thumb_func
_ZNSt6__ndk113basic_filebufIcNS_11char_traitsIcEEE6setbufEPci:
.Lfunc_begin43:
	.loc	22 868 0                @ Library/Android/sdk/ndk/21.4.7075529/toolchains/llvm/prebuilt/darwin-x86_64/sysroot/usr/include/c++/v1/fstream:868:0
	.fnstart
	.cfi_startproc
@ %bb.0:
	.save	{r7, lr}
	push	{r7, lr}
	.cfi_def_cfa_offset 8
	.cfi_offset lr, -4
	.cfi_offset r7, -8
	.setfp	r7, sp
	mov	r7, sp
	.cfi_def_cfa_register r7
	.pad	#40
	sub	sp, #40
	ldr	r3, .LCPI43_0
.LPC43_0:
	add	r3, pc
	ldr	r3, [r3]
	ldr	r3, [r3]
	str	r3, [sp, #36]
	str	r0, [sp, #24]
	str	r1, [sp, #20]
	str	r2, [sp, #32]
	ldr	r0, [sp, #24]
	movs	r1, #0
.Ltmp415:
	.loc	22 869 11 prologue_end  @ Library/Android/sdk/ndk/21.4.7075529/toolchains/llvm/prebuilt/darwin-x86_64/sysroot/usr/include/c++/v1/fstream:869:11
	str	r0, [sp, #16]           @ 4-byte Spill
	str	r1, [sp, #12]           @ 4-byte Spill
	ldr	r2, [sp, #12]           @ 4-byte Reload
	ldr	r3, [sp, #12]           @ 4-byte Reload
	bl	_ZNSt6__ndk115basic_streambufIcNS_11char_traitsIcEEE4setgEPcS4_S4_
	.loc	22 870 11               @ Library/Android/sdk/ndk/21.4.7075529/toolchains/llvm/prebuilt/darwin-x86_64/sysroot/usr/include/c++/v1/fstream:870:11
	ldr	r0, [sp, #16]           @ 4-byte Reload
	ldr	r1, [sp, #12]           @ 4-byte Reload
	ldr	r2, [sp, #12]           @ 4-byte Reload
	bl	_ZNSt6__ndk115basic_streambufIcNS_11char_traitsIcEEE4setpEPcS4_
.Ltmp416:
	.loc	22 871 9                @ Library/Android/sdk/ndk/21.4.7075529/toolchains/llvm/prebuilt/darwin-x86_64/sysroot/usr/include/c++/v1/fstream:871:9
	ldr	r0, [sp, #16]           @ 4-byte Reload
	ldrb.w	r1, [r0, #88]
.Ltmp417:
	.loc	22 871 9 is_stmt 0      @ Library/Android/sdk/ndk/21.4.7075529/toolchains/llvm/prebuilt/darwin-x86_64/sysroot/usr/include/c++/v1/fstream:871:9
	lsls	r1, r1, #31
	cmp	r1, #0
	beq	.LBB43_4
	b	.LBB43_1
.LBB43_1:
.Ltmp418:
	.loc	22 872 19 is_stmt 1     @ Library/Android/sdk/ndk/21.4.7075529/toolchains/llvm/prebuilt/darwin-x86_64/sysroot/usr/include/c++/v1/fstream:872:19
	ldr	r0, [sp, #16]           @ 4-byte Reload
	ldr	r1, [r0, #32]
	.loc	22 872 9 is_stmt 0      @ Library/Android/sdk/ndk/21.4.7075529/toolchains/llvm/prebuilt/darwin-x86_64/sysroot/usr/include/c++/v1/fstream:872:9
	cmp	r1, #0
	str	r1, [sp, #8]            @ 4-byte Spill
	beq	.LBB43_3
	b	.LBB43_2
.LBB43_2:
	ldr	r0, [sp, #8]            @ 4-byte Reload
	bl	_ZdaPv
	b	.LBB43_3
.LBB43_3:
	b	.LBB43_4
.Ltmp419:
.LBB43_4:
	.loc	22 873 9 is_stmt 1      @ Library/Android/sdk/ndk/21.4.7075529/toolchains/llvm/prebuilt/darwin-x86_64/sysroot/usr/include/c++/v1/fstream:873:9
	ldr	r0, [sp, #16]           @ 4-byte Reload
	ldrb.w	r1, [r0, #89]
.Ltmp420:
	.loc	22 873 9 is_stmt 0      @ Library/Android/sdk/ndk/21.4.7075529/toolchains/llvm/prebuilt/darwin-x86_64/sysroot/usr/include/c++/v1/fstream:873:9
	lsls	r1, r1, #31
	cmp	r1, #0
	beq	.LBB43_8
	b	.LBB43_5
.LBB43_5:
.Ltmp421:
	.loc	22 874 19 is_stmt 1     @ Library/Android/sdk/ndk/21.4.7075529/toolchains/llvm/prebuilt/darwin-x86_64/sysroot/usr/include/c++/v1/fstream:874:19
	ldr	r0, [sp, #16]           @ 4-byte Reload
	ldr	r1, [r0, #56]
	.loc	22 874 9 is_stmt 0      @ Library/Android/sdk/ndk/21.4.7075529/toolchains/llvm/prebuilt/darwin-x86_64/sysroot/usr/include/c++/v1/fstream:874:9
	cmp	r1, #0
	str	r1, [sp, #4]            @ 4-byte Spill
	beq	.LBB43_7
	b	.LBB43_6
.LBB43_6:
	ldr	r0, [sp, #4]            @ 4-byte Reload
	bl	_ZdaPv
	b	.LBB43_7
.LBB43_7:
	b	.LBB43_8
.Ltmp422:
.LBB43_8:
	.loc	22 875 14 is_stmt 1     @ Library/Android/sdk/ndk/21.4.7075529/toolchains/llvm/prebuilt/darwin-x86_64/sysroot/usr/include/c++/v1/fstream:875:14
	ldr	r0, [sp, #32]
	.loc	22 875 12 is_stmt 0     @ Library/Android/sdk/ndk/21.4.7075529/toolchains/llvm/prebuilt/darwin-x86_64/sysroot/usr/include/c++/v1/fstream:875:12
	ldr	r1, [sp, #16]           @ 4-byte Reload
	str	r0, [r1, #52]
.Ltmp423:
	.loc	22 876 9 is_stmt 1      @ Library/Android/sdk/ndk/21.4.7075529/toolchains/llvm/prebuilt/darwin-x86_64/sysroot/usr/include/c++/v1/fstream:876:9
	ldr	r0, [r1, #52]
.Ltmp424:
	.loc	22 876 9 is_stmt 0      @ Library/Android/sdk/ndk/21.4.7075529/toolchains/llvm/prebuilt/darwin-x86_64/sysroot/usr/include/c++/v1/fstream:876:9
	cmp	r0, #9
	blo	.LBB43_14
	b	.LBB43_9
.LBB43_9:
.Ltmp425:
	.loc	22 878 13 is_stmt 1     @ Library/Android/sdk/ndk/21.4.7075529/toolchains/llvm/prebuilt/darwin-x86_64/sysroot/usr/include/c++/v1/fstream:878:13
	ldr	r0, [sp, #16]           @ 4-byte Reload
	ldrb.w	r1, [r0, #90]
	.loc	22 878 30 is_stmt 0     @ Library/Android/sdk/ndk/21.4.7075529/toolchains/llvm/prebuilt/darwin-x86_64/sysroot/usr/include/c++/v1/fstream:878:30
	lsls	r1, r1, #31
	cmp	r1, #0
	beq	.LBB43_12
	b	.LBB43_10
.LBB43_10:
	.loc	22 878 33               @ Library/Android/sdk/ndk/21.4.7075529/toolchains/llvm/prebuilt/darwin-x86_64/sysroot/usr/include/c++/v1/fstream:878:33
	ldr	r0, [sp, #20]
.Ltmp426:
	.loc	22 878 13               @ Library/Android/sdk/ndk/21.4.7075529/toolchains/llvm/prebuilt/darwin-x86_64/sysroot/usr/include/c++/v1/fstream:878:13
	cmp	r0, #0
	beq	.LBB43_12
	b	.LBB43_11
.LBB43_11:
.Ltmp427:
	.loc	22 880 32 is_stmt 1     @ Library/Android/sdk/ndk/21.4.7075529/toolchains/llvm/prebuilt/darwin-x86_64/sysroot/usr/include/c++/v1/fstream:880:32
	ldr	r0, [sp, #20]
	.loc	22 880 23 is_stmt 0     @ Library/Android/sdk/ndk/21.4.7075529/toolchains/llvm/prebuilt/darwin-x86_64/sysroot/usr/include/c++/v1/fstream:880:23
	ldr	r1, [sp, #16]           @ 4-byte Reload
	str	r0, [r1, #32]
	movs	r0, #0
	.loc	22 881 24 is_stmt 1     @ Library/Android/sdk/ndk/21.4.7075529/toolchains/llvm/prebuilt/darwin-x86_64/sysroot/usr/include/c++/v1/fstream:881:24
	strb.w	r0, [r1, #88]
	.loc	22 882 9                @ Library/Android/sdk/ndk/21.4.7075529/toolchains/llvm/prebuilt/darwin-x86_64/sysroot/usr/include/c++/v1/fstream:882:9
	b	.LBB43_13
.Ltmp428:
.LBB43_12:
	.loc	22 885 34               @ Library/Android/sdk/ndk/21.4.7075529/toolchains/llvm/prebuilt/darwin-x86_64/sysroot/usr/include/c++/v1/fstream:885:34
	ldr	r0, [sp, #16]           @ 4-byte Reload
	ldr	r0, [r0, #52]
	.loc	22 885 25 is_stmt 0     @ Library/Android/sdk/ndk/21.4.7075529/toolchains/llvm/prebuilt/darwin-x86_64/sysroot/usr/include/c++/v1/fstream:885:25
	bl	_Znaj
	.loc	22 885 23               @ Library/Android/sdk/ndk/21.4.7075529/toolchains/llvm/prebuilt/darwin-x86_64/sysroot/usr/include/c++/v1/fstream:885:23
	ldr	r1, [sp, #16]           @ 4-byte Reload
	str	r0, [r1, #32]
	movs	r0, #1
	.loc	22 886 24 is_stmt 1     @ Library/Android/sdk/ndk/21.4.7075529/toolchains/llvm/prebuilt/darwin-x86_64/sysroot/usr/include/c++/v1/fstream:886:24
	strb.w	r0, [r1, #88]
	b	.LBB43_13
.Ltmp429:
.LBB43_13:
	.loc	22 888 5                @ Library/Android/sdk/ndk/21.4.7075529/toolchains/llvm/prebuilt/darwin-x86_64/sysroot/usr/include/c++/v1/fstream:888:5
	b	.LBB43_15
.Ltmp430:
.LBB43_14:
	.loc	22 891 21               @ Library/Android/sdk/ndk/21.4.7075529/toolchains/llvm/prebuilt/darwin-x86_64/sysroot/usr/include/c++/v1/fstream:891:21
	ldr	r0, [sp, #16]           @ 4-byte Reload
	add.w	r1, r0, #44
	.loc	22 891 19 is_stmt 0     @ Library/Android/sdk/ndk/21.4.7075529/toolchains/llvm/prebuilt/darwin-x86_64/sysroot/usr/include/c++/v1/fstream:891:19
	str	r1, [r0, #32]
	movs	r1, #8
	.loc	22 892 16 is_stmt 1     @ Library/Android/sdk/ndk/21.4.7075529/toolchains/llvm/prebuilt/darwin-x86_64/sysroot/usr/include/c++/v1/fstream:892:16
	str	r1, [r0, #52]
	movs	r1, #0
	.loc	22 893 20               @ Library/Android/sdk/ndk/21.4.7075529/toolchains/llvm/prebuilt/darwin-x86_64/sysroot/usr/include/c++/v1/fstream:893:20
	strb.w	r1, [r0, #88]
	b	.LBB43_15
.Ltmp431:
.LBB43_15:
	.loc	22 895 10               @ Library/Android/sdk/ndk/21.4.7075529/toolchains/llvm/prebuilt/darwin-x86_64/sysroot/usr/include/c++/v1/fstream:895:10
	ldr	r0, [sp, #16]           @ 4-byte Reload
	ldrb.w	r1, [r0, #90]
.Ltmp432:
	.loc	22 895 9 is_stmt 0      @ Library/Android/sdk/ndk/21.4.7075529/toolchains/llvm/prebuilt/darwin-x86_64/sysroot/usr/include/c++/v1/fstream:895:9
	lsls	r1, r1, #31
	cmp	r1, #0
	bne	.LBB43_21
	b	.LBB43_16
.LBB43_16:
	.loc	22 0 9                  @ Library/Android/sdk/ndk/21.4.7075529/toolchains/llvm/prebuilt/darwin-x86_64/sysroot/usr/include/c++/v1/fstream:0:9
	movs	r0, #8
.Ltmp433:
	.loc	22 897 39 is_stmt 1     @ Library/Android/sdk/ndk/21.4.7075529/toolchains/llvm/prebuilt/darwin-x86_64/sysroot/usr/include/c++/v1/fstream:897:39
	str	r0, [sp, #28]
	add	r0, sp, #32
	add	r1, sp, #28
	.loc	22 897 18 is_stmt 0     @ Library/Android/sdk/ndk/21.4.7075529/toolchains/llvm/prebuilt/darwin-x86_64/sysroot/usr/include/c++/v1/fstream:897:18
	bl	_ZNSt6__ndk13maxIiEERKT_S3_S3_
	ldr	r0, [r0]
	.loc	22 897 16               @ Library/Android/sdk/ndk/21.4.7075529/toolchains/llvm/prebuilt/darwin-x86_64/sysroot/usr/include/c++/v1/fstream:897:16
	ldr	r1, [sp, #16]           @ 4-byte Reload
	str	r0, [r1, #60]
.Ltmp434:
	.loc	22 898 13 is_stmt 1     @ Library/Android/sdk/ndk/21.4.7075529/toolchains/llvm/prebuilt/darwin-x86_64/sysroot/usr/include/c++/v1/fstream:898:13
	ldr	r0, [sp, #20]
	.loc	22 898 17 is_stmt 0     @ Library/Android/sdk/ndk/21.4.7075529/toolchains/llvm/prebuilt/darwin-x86_64/sysroot/usr/include/c++/v1/fstream:898:17
	cmp	r0, #0
	beq	.LBB43_19
	b	.LBB43_17
.LBB43_17:
	.loc	22 898 20               @ Library/Android/sdk/ndk/21.4.7075529/toolchains/llvm/prebuilt/darwin-x86_64/sysroot/usr/include/c++/v1/fstream:898:20
	ldr	r0, [sp, #16]           @ 4-byte Reload
	ldr	r1, [r0, #60]
.Ltmp435:
	.loc	22 898 13               @ Library/Android/sdk/ndk/21.4.7075529/toolchains/llvm/prebuilt/darwin-x86_64/sysroot/usr/include/c++/v1/fstream:898:13
	cmp	r1, #8
	blo	.LBB43_19
	b	.LBB43_18
.LBB43_18:
.Ltmp436:
	.loc	22 900 25 is_stmt 1     @ Library/Android/sdk/ndk/21.4.7075529/toolchains/llvm/prebuilt/darwin-x86_64/sysroot/usr/include/c++/v1/fstream:900:25
	ldr	r0, [sp, #20]
	.loc	22 900 23 is_stmt 0     @ Library/Android/sdk/ndk/21.4.7075529/toolchains/llvm/prebuilt/darwin-x86_64/sysroot/usr/include/c++/v1/fstream:900:23
	ldr	r1, [sp, #16]           @ 4-byte Reload
	str	r0, [r1, #56]
	movs	r0, #0
	.loc	22 901 24 is_stmt 1     @ Library/Android/sdk/ndk/21.4.7075529/toolchains/llvm/prebuilt/darwin-x86_64/sysroot/usr/include/c++/v1/fstream:901:24
	strb.w	r0, [r1, #89]
	.loc	22 902 9                @ Library/Android/sdk/ndk/21.4.7075529/toolchains/llvm/prebuilt/darwin-x86_64/sysroot/usr/include/c++/v1/fstream:902:9
	b	.LBB43_20
.Ltmp437:
.LBB43_19:
	.loc	22 905 39               @ Library/Android/sdk/ndk/21.4.7075529/toolchains/llvm/prebuilt/darwin-x86_64/sysroot/usr/include/c++/v1/fstream:905:39
	ldr	r0, [sp, #16]           @ 4-byte Reload
	ldr	r0, [r0, #60]
	.loc	22 905 25 is_stmt 0     @ Library/Android/sdk/ndk/21.4.7075529/toolchains/llvm/prebuilt/darwin-x86_64/sysroot/usr/include/c++/v1/fstream:905:25
	bl	_Znaj
	.loc	22 905 23               @ Library/Android/sdk/ndk/21.4.7075529/toolchains/llvm/prebuilt/darwin-x86_64/sysroot/usr/include/c++/v1/fstream:905:23
	ldr	r1, [sp, #16]           @ 4-byte Reload
	str	r0, [r1, #56]
	movs	r0, #1
	.loc	22 906 24 is_stmt 1     @ Library/Android/sdk/ndk/21.4.7075529/toolchains/llvm/prebuilt/darwin-x86_64/sysroot/usr/include/c++/v1/fstream:906:24
	strb.w	r0, [r1, #89]
	b	.LBB43_20
.Ltmp438:
.LBB43_20:
	.loc	22 908 5                @ Library/Android/sdk/ndk/21.4.7075529/toolchains/llvm/prebuilt/darwin-x86_64/sysroot/usr/include/c++/v1/fstream:908:5
	b	.LBB43_22
.Ltmp439:
.LBB43_21:
	.loc	22 0 5 is_stmt 0        @ Library/Android/sdk/ndk/21.4.7075529/toolchains/llvm/prebuilt/darwin-x86_64/sysroot/usr/include/c++/v1/fstream:0:5
	movs	r0, #0
.Ltmp440:
	.loc	22 911 16 is_stmt 1     @ Library/Android/sdk/ndk/21.4.7075529/toolchains/llvm/prebuilt/darwin-x86_64/sysroot/usr/include/c++/v1/fstream:911:16
	ldr	r1, [sp, #16]           @ 4-byte Reload
	str	r0, [r1, #60]
	.loc	22 912 19               @ Library/Android/sdk/ndk/21.4.7075529/toolchains/llvm/prebuilt/darwin-x86_64/sysroot/usr/include/c++/v1/fstream:912:19
	str	r0, [r1, #56]
	.loc	22 913 20               @ Library/Android/sdk/ndk/21.4.7075529/toolchains/llvm/prebuilt/darwin-x86_64/sysroot/usr/include/c++/v1/fstream:913:20
	strb.w	r0, [r1, #89]
	b	.LBB43_22
.Ltmp441:
.LBB43_22:
	.loc	22 915 12               @ Library/Android/sdk/ndk/21.4.7075529/toolchains/llvm/prebuilt/darwin-x86_64/sysroot/usr/include/c++/v1/fstream:915:12
	ldr	r0, [sp, #16]           @ 4-byte Reload
	ldr	r1, .LCPI43_1
.LPC43_1:
	add	r1, pc
	ldr	r1, [r1]
	ldr	r1, [r1]
	ldr	r2, [sp, #36]
	cmp	r1, r2
	str	r0, [sp]                @ 4-byte Spill
	bne	.LBB43_24
	b	.LBB43_23
.LBB43_23:                              @ %SP_return
	.loc	22 915 5 is_stmt 0      @ Library/Android/sdk/ndk/21.4.7075529/toolchains/llvm/prebuilt/darwin-x86_64/sysroot/usr/include/c++/v1/fstream:915:5
	ldr	r0, [sp]                @ 4-byte Reload
	add	sp, #40
	pop	{r7, pc}
.LBB43_24:                              @ %CallStackCheckFailBlk
	.loc	22 0 0                  @ Library/Android/sdk/ndk/21.4.7075529/toolchains/llvm/prebuilt/darwin-x86_64/sysroot/usr/include/c++/v1/fstream:0:0
	bl	__stack_chk_fail
.Ltmp442:
	.p2align	2
@ %bb.25:
.LCPI43_0:
.Ltmp443:
	.long	__stack_chk_guard(GOT_PREL)-((.LPC43_0+4)-.Ltmp443)
.LCPI43_1:
.Ltmp444:
	.long	__stack_chk_guard(GOT_PREL)-((.LPC43_1+4)-.Ltmp444)
.Lfunc_end43:
	.size	_ZNSt6__ndk113basic_filebufIcNS_11char_traitsIcEEE6setbufEPci, .Lfunc_end43-_ZNSt6__ndk113basic_filebufIcNS_11char_traitsIcEEE6setbufEPci
	.cfi_endproc
	.fnend
                                        @ -- End function
	.section	.text._ZNSt6__ndk113basic_filebufIcNS_11char_traitsIcEEE7seekoffExNS_8ios_base7seekdirEj,"axG",%progbits,_ZNSt6__ndk113basic_filebufIcNS_11char_traitsIcEEE7seekoffExNS_8ios_base7seekdirEj,comdat
	.weak	_ZNSt6__ndk113basic_filebufIcNS_11char_traitsIcEEE7seekoffExNS_8ios_base7seekdirEj @ -- Begin function _ZNSt6__ndk113basic_filebufIcNS_11char_traitsIcEEE7seekoffExNS_8ios_base7seekdirEj
	.p2align	2
	.type	_ZNSt6__ndk113basic_filebufIcNS_11char_traitsIcEEE7seekoffExNS_8ios_base7seekdirEj,%function
	.code	16                      @ @_ZNSt6__ndk113basic_filebufIcNS_11char_traitsIcEEE7seekoffExNS_8ios_base7seekdirEj
	.thumb_func
_ZNSt6__ndk113basic_filebufIcNS_11char_traitsIcEEE7seekoffExNS_8ios_base7seekdirEj:
.Lfunc_begin44:
	.loc	22 922 0 is_stmt 1      @ Library/Android/sdk/ndk/21.4.7075529/toolchains/llvm/prebuilt/darwin-x86_64/sysroot/usr/include/c++/v1/fstream:922:0
	.fnstart
	.cfi_startproc
@ %bb.0:
	.save	{r4, r5, r6, r7, lr}
	push	{r4, r5, r6, r7, lr}
	.cfi_def_cfa_offset 20
	.cfi_offset lr, -4
	.cfi_offset r7, -8
	.cfi_offset r6, -12
	.cfi_offset r5, -16
	.cfi_offset r4, -20
	.setfp	r7, sp, #12
	add	r7, sp, #12
	.cfi_def_cfa r7, 8
	.save	{r11}
	str	r11, [sp, #-4]!
	.cfi_offset r11, -24
	.pad	#96
	sub	sp, #96
	mov	r12, r3
	mov	lr, r2
	ldr	r4, [r7, #12]
	ldr	r5, [r7, #8]
	ldr	r6, .LCPI44_0
.LPC44_0:
	add	r6, pc
	ldr	r6, [r6]
	ldr	r6, [r6]
	str	r6, [sp, #92]
	str	r1, [sp, #64]
	str	r3, [sp, #60]
	str	r2, [sp, #56]
	ldr	r1, [sp, #64]
.Ltmp445:
	.loc	22 923 10 prologue_end  @ Library/Android/sdk/ndk/21.4.7075529/toolchains/llvm/prebuilt/darwin-x86_64/sysroot/usr/include/c++/v1/fstream:923:10
	ldr	r2, [r1, #68]
.Ltmp446:
	.loc	22 923 9 is_stmt 0      @ Library/Android/sdk/ndk/21.4.7075529/toolchains/llvm/prebuilt/darwin-x86_64/sysroot/usr/include/c++/v1/fstream:923:9
	cmp	r2, #0
	str	r0, [sp, #44]           @ 4-byte Spill
	str	r1, [sp, #40]           @ 4-byte Spill
	bne	.LBB44_2
	b	.LBB44_1
.LBB44_1:
.Ltmp447:
	.loc	22 924 9 is_stmt 1      @ Library/Android/sdk/ndk/21.4.7075529/toolchains/llvm/prebuilt/darwin-x86_64/sysroot/usr/include/c++/v1/fstream:924:9
	bl	_ZNSt6__ndk116__throw_bad_castEv
.Ltmp448:
.LBB44_2:
	.loc	22 926 19               @ Library/Android/sdk/ndk/21.4.7075529/toolchains/llvm/prebuilt/darwin-x86_64/sysroot/usr/include/c++/v1/fstream:926:19
	ldr	r0, [sp, #40]           @ 4-byte Reload
	ldr	r0, [r0, #68]
	.loc	22 926 26 is_stmt 0     @ Library/Android/sdk/ndk/21.4.7075529/toolchains/llvm/prebuilt/darwin-x86_64/sysroot/usr/include/c++/v1/fstream:926:26
	bl	_ZNKSt6__ndk17codecvtIcc9mbstate_tE8encodingEv
	.loc	22 926 9                @ Library/Android/sdk/ndk/21.4.7075529/toolchains/llvm/prebuilt/darwin-x86_64/sysroot/usr/include/c++/v1/fstream:926:9
	str	r0, [sp, #52]
.Ltmp449:
	.loc	22 927 9 is_stmt 1      @ Library/Android/sdk/ndk/21.4.7075529/toolchains/llvm/prebuilt/darwin-x86_64/sysroot/usr/include/c++/v1/fstream:927:9
	ldr	r0, [sp, #40]           @ 4-byte Reload
	ldr	r1, [r0, #64]
	.loc	22 927 22 is_stmt 0     @ Library/Android/sdk/ndk/21.4.7075529/toolchains/llvm/prebuilt/darwin-x86_64/sysroot/usr/include/c++/v1/fstream:927:22
	cmp	r1, #0
	beq	.LBB44_6
	b	.LBB44_3
.LBB44_3:
	.loc	22 927 26               @ Library/Android/sdk/ndk/21.4.7075529/toolchains/llvm/prebuilt/darwin-x86_64/sysroot/usr/include/c++/v1/fstream:927:26
	ldr	r0, [sp, #52]
	.loc	22 927 39               @ Library/Android/sdk/ndk/21.4.7075529/toolchains/llvm/prebuilt/darwin-x86_64/sysroot/usr/include/c++/v1/fstream:927:39
	cmp	r0, #0
	bgt	.LBB44_5
	b	.LBB44_4
.LBB44_4:
	.loc	22 927 42               @ Library/Android/sdk/ndk/21.4.7075529/toolchains/llvm/prebuilt/darwin-x86_64/sysroot/usr/include/c++/v1/fstream:927:42
	ldr	r0, [sp, #56]
	ldr	r1, [sp, #60]
	.loc	22 927 48               @ Library/Android/sdk/ndk/21.4.7075529/toolchains/llvm/prebuilt/darwin-x86_64/sysroot/usr/include/c++/v1/fstream:927:48
	orrs	r0, r1
	.loc	22 927 54               @ Library/Android/sdk/ndk/21.4.7075529/toolchains/llvm/prebuilt/darwin-x86_64/sysroot/usr/include/c++/v1/fstream:927:54
	cmp	r0, #0
	bne	.LBB44_6
	b	.LBB44_5
.LBB44_5:
	.loc	22 927 57               @ Library/Android/sdk/ndk/21.4.7075529/toolchains/llvm/prebuilt/darwin-x86_64/sysroot/usr/include/c++/v1/fstream:927:57
	ldr	r0, [sp, #40]           @ 4-byte Reload
	ldr	r1, [r0]
	ldr	r1, [r1, #24]
	blx	r1
.Ltmp450:
	.loc	22 927 9                @ Library/Android/sdk/ndk/21.4.7075529/toolchains/llvm/prebuilt/darwin-x86_64/sysroot/usr/include/c++/v1/fstream:927:9
	cmp	r0, #0
	beq	.LBB44_7
	b	.LBB44_6
.LBB44_6:
	.loc	22 0 9                  @ Library/Android/sdk/ndk/21.4.7075529/toolchains/llvm/prebuilt/darwin-x86_64/sysroot/usr/include/c++/v1/fstream:0:9
	mov.w	r0, #-1
.Ltmp451:
	.loc	22 928 16 is_stmt 1     @ Library/Android/sdk/ndk/21.4.7075529/toolchains/llvm/prebuilt/darwin-x86_64/sysroot/usr/include/c++/v1/fstream:928:16
	ldr	r1, [sp, #44]           @ 4-byte Reload
	str	r0, [sp, #36]           @ 4-byte Spill
	mov	r0, r1
	ldr	r2, [sp, #36]           @ 4-byte Reload
	ldr	r3, [sp, #36]           @ 4-byte Reload
	bl	_ZNSt6__ndk14fposI9mbstate_tEC2Ex
	.loc	22 928 9 is_stmt 0      @ Library/Android/sdk/ndk/21.4.7075529/toolchains/llvm/prebuilt/darwin-x86_64/sysroot/usr/include/c++/v1/fstream:928:9
	b	.LBB44_20
.Ltmp452:
.LBB44_7:
	.loc	22 931 13 is_stmt 1     @ Library/Android/sdk/ndk/21.4.7075529/toolchains/llvm/prebuilt/darwin-x86_64/sysroot/usr/include/c++/v1/fstream:931:13
	ldr	r0, [r7, #8]
	.loc	22 931 5 is_stmt 0      @ Library/Android/sdk/ndk/21.4.7075529/toolchains/llvm/prebuilt/darwin-x86_64/sysroot/usr/include/c++/v1/fstream:931:5
	cmp	r0, #0
	str	r0, [sp, #32]           @ 4-byte Spill
	beq	.LBB44_10
	b	.LBB44_8
.LBB44_8:
	ldr	r0, [sp, #32]           @ 4-byte Reload
	cmp	r0, #1
	beq	.LBB44_11
	b	.LBB44_9
.LBB44_9:
	ldr	r0, [sp, #32]           @ 4-byte Reload
	cmp	r0, #2
	beq	.LBB44_12
	b	.LBB44_13
.LBB44_10:
	.loc	22 0 5                  @ Library/Android/sdk/ndk/21.4.7075529/toolchains/llvm/prebuilt/darwin-x86_64/sysroot/usr/include/c++/v1/fstream:0:5
	movs	r0, #0
.Ltmp453:
	.loc	22 934 18 is_stmt 1     @ Library/Android/sdk/ndk/21.4.7075529/toolchains/llvm/prebuilt/darwin-x86_64/sysroot/usr/include/c++/v1/fstream:934:18
	str	r0, [sp, #48]
	.loc	22 935 9                @ Library/Android/sdk/ndk/21.4.7075529/toolchains/llvm/prebuilt/darwin-x86_64/sysroot/usr/include/c++/v1/fstream:935:9
	b	.LBB44_14
.LBB44_11:
	.loc	22 0 9 is_stmt 0        @ Library/Android/sdk/ndk/21.4.7075529/toolchains/llvm/prebuilt/darwin-x86_64/sysroot/usr/include/c++/v1/fstream:0:9
	movs	r0, #1
	.loc	22 937 18 is_stmt 1     @ Library/Android/sdk/ndk/21.4.7075529/toolchains/llvm/prebuilt/darwin-x86_64/sysroot/usr/include/c++/v1/fstream:937:18
	str	r0, [sp, #48]
	.loc	22 938 9                @ Library/Android/sdk/ndk/21.4.7075529/toolchains/llvm/prebuilt/darwin-x86_64/sysroot/usr/include/c++/v1/fstream:938:9
	b	.LBB44_14
.LBB44_12:
	.loc	22 0 9 is_stmt 0        @ Library/Android/sdk/ndk/21.4.7075529/toolchains/llvm/prebuilt/darwin-x86_64/sysroot/usr/include/c++/v1/fstream:0:9
	movs	r0, #2
	.loc	22 940 18 is_stmt 1     @ Library/Android/sdk/ndk/21.4.7075529/toolchains/llvm/prebuilt/darwin-x86_64/sysroot/usr/include/c++/v1/fstream:940:18
	str	r0, [sp, #48]
	.loc	22 941 9                @ Library/Android/sdk/ndk/21.4.7075529/toolchains/llvm/prebuilt/darwin-x86_64/sysroot/usr/include/c++/v1/fstream:941:9
	b	.LBB44_14
.LBB44_13:
	.loc	22 0 9 is_stmt 0        @ Library/Android/sdk/ndk/21.4.7075529/toolchains/llvm/prebuilt/darwin-x86_64/sysroot/usr/include/c++/v1/fstream:0:9
	mov.w	r0, #-1
	.loc	22 943 16 is_stmt 1     @ Library/Android/sdk/ndk/21.4.7075529/toolchains/llvm/prebuilt/darwin-x86_64/sysroot/usr/include/c++/v1/fstream:943:16
	ldr	r1, [sp, #44]           @ 4-byte Reload
	str	r0, [sp, #28]           @ 4-byte Spill
	mov	r0, r1
	ldr	r2, [sp, #28]           @ 4-byte Reload
	ldr	r3, [sp, #28]           @ 4-byte Reload
	bl	_ZNSt6__ndk14fposI9mbstate_tEC2Ex
	.loc	22 943 9 is_stmt 0      @ Library/Android/sdk/ndk/21.4.7075529/toolchains/llvm/prebuilt/darwin-x86_64/sysroot/usr/include/c++/v1/fstream:943:9
	b	.LBB44_20
.Ltmp454:
.LBB44_14:
	.loc	22 950 16 is_stmt 1     @ Library/Android/sdk/ndk/21.4.7075529/toolchains/llvm/prebuilt/darwin-x86_64/sysroot/usr/include/c++/v1/fstream:950:16
	ldr	r0, [sp, #40]           @ 4-byte Reload
	ldr	r0, [r0, #64]
	.loc	22 950 25 is_stmt 0     @ Library/Android/sdk/ndk/21.4.7075529/toolchains/llvm/prebuilt/darwin-x86_64/sysroot/usr/include/c++/v1/fstream:950:25
	ldr	r1, [sp, #52]
	cmp	r1, #1
	str	r0, [sp, #24]           @ 4-byte Spill
	blt	.LBB44_16
	b	.LBB44_15
.LBB44_15:
	.loc	22 950 39               @ Library/Android/sdk/ndk/21.4.7075529/toolchains/llvm/prebuilt/darwin-x86_64/sysroot/usr/include/c++/v1/fstream:950:39
	ldr	r0, [sp, #52]
	asrs	r1, r0, #31
	.loc	22 950 49               @ Library/Android/sdk/ndk/21.4.7075529/toolchains/llvm/prebuilt/darwin-x86_64/sysroot/usr/include/c++/v1/fstream:950:49
	ldr	r2, [sp, #56]
	ldr	r3, [sp, #60]
	.loc	22 950 47               @ Library/Android/sdk/ndk/21.4.7075529/toolchains/llvm/prebuilt/darwin-x86_64/sysroot/usr/include/c++/v1/fstream:950:47
	umull	r12, lr, r0, r2
	mla	r0, r0, r3, lr
	mla	r0, r1, r2, r0
	.loc	22 950 25               @ Library/Android/sdk/ndk/21.4.7075529/toolchains/llvm/prebuilt/darwin-x86_64/sysroot/usr/include/c++/v1/fstream:950:25
	str.w	r12, [sp, #20]          @ 4-byte Spill
	str	r0, [sp, #16]           @ 4-byte Spill
	b	.LBB44_17
.LBB44_16:
	.loc	22 0 25                 @ Library/Android/sdk/ndk/21.4.7075529/toolchains/llvm/prebuilt/darwin-x86_64/sysroot/usr/include/c++/v1/fstream:0:25
	movs	r0, #0
	mov	r1, r0
	.loc	22 950 25               @ Library/Android/sdk/ndk/21.4.7075529/toolchains/llvm/prebuilt/darwin-x86_64/sysroot/usr/include/c++/v1/fstream:950:25
	str	r0, [sp, #20]           @ 4-byte Spill
	str	r1, [sp, #16]           @ 4-byte Spill
	b	.LBB44_17
.LBB44_17:
	ldr	r0, [sp, #16]           @ 4-byte Reload
	ldr	r1, [sp, #20]           @ 4-byte Reload
	.loc	22 950 60               @ Library/Android/sdk/ndk/21.4.7075529/toolchains/llvm/prebuilt/darwin-x86_64/sysroot/usr/include/c++/v1/fstream:950:60
	ldr	r2, [sp, #48]
	.loc	22 950 9                @ Library/Android/sdk/ndk/21.4.7075529/toolchains/llvm/prebuilt/darwin-x86_64/sysroot/usr/include/c++/v1/fstream:950:9
	ldr	r3, [sp, #24]           @ 4-byte Reload
	str	r0, [sp, #12]           @ 4-byte Spill
	mov	r0, r3
	bl	fseeko
.Ltmp455:
	.loc	22 950 9                @ Library/Android/sdk/ndk/21.4.7075529/toolchains/llvm/prebuilt/darwin-x86_64/sysroot/usr/include/c++/v1/fstream:950:9
	cmp	r0, #0
	beq	.LBB44_19
	b	.LBB44_18
.LBB44_18:
	.loc	22 0 9                  @ Library/Android/sdk/ndk/21.4.7075529/toolchains/llvm/prebuilt/darwin-x86_64/sysroot/usr/include/c++/v1/fstream:0:9
	mov.w	r0, #-1
.Ltmp456:
	.loc	22 951 16 is_stmt 1     @ Library/Android/sdk/ndk/21.4.7075529/toolchains/llvm/prebuilt/darwin-x86_64/sysroot/usr/include/c++/v1/fstream:951:16
	ldr	r1, [sp, #44]           @ 4-byte Reload
	str	r0, [sp, #8]            @ 4-byte Spill
	mov	r0, r1
	ldr	r2, [sp, #8]            @ 4-byte Reload
	ldr	r3, [sp, #8]            @ 4-byte Reload
	bl	_ZNSt6__ndk14fposI9mbstate_tEC2Ex
	.loc	22 951 9 is_stmt 0      @ Library/Android/sdk/ndk/21.4.7075529/toolchains/llvm/prebuilt/darwin-x86_64/sysroot/usr/include/c++/v1/fstream:951:9
	b	.LBB44_20
.Ltmp457:
.LBB44_19:
	.loc	22 952 27 is_stmt 1     @ Library/Android/sdk/ndk/21.4.7075529/toolchains/llvm/prebuilt/darwin-x86_64/sysroot/usr/include/c++/v1/fstream:952:27
	ldr	r0, [sp, #40]           @ 4-byte Reload
	ldr	r0, [r0, #64]
	.loc	22 952 20 is_stmt 0     @ Library/Android/sdk/ndk/21.4.7075529/toolchains/llvm/prebuilt/darwin-x86_64/sysroot/usr/include/c++/v1/fstream:952:20
	bl	ftello
	asrs	r3, r0, #31
	add	r1, sp, #72
	str	r0, [sp, #4]            @ 4-byte Spill
	mov	r0, r1
	ldr	r2, [sp, #4]            @ 4-byte Reload
	str	r1, [sp]                @ 4-byte Spill
	bl	_ZNSt6__ndk14fposI9mbstate_tEC2Ex
	.loc	22 954 15 is_stmt 1     @ Library/Android/sdk/ndk/21.4.7075529/toolchains/llvm/prebuilt/darwin-x86_64/sysroot/usr/include/c++/v1/fstream:954:15
	ldr	r0, [sp, #40]           @ 4-byte Reload
	ldr	r1, [r0, #72]
	str	r1, [sp, #68]
	.loc	22 954 9 is_stmt 0      @ Library/Android/sdk/ndk/21.4.7075529/toolchains/llvm/prebuilt/darwin-x86_64/sysroot/usr/include/c++/v1/fstream:954:9
	ldr	r1, [sp, #68]
	ldr	r0, [sp]                @ 4-byte Reload
	bl	_ZNSt6__ndk14fposI9mbstate_tE5stateES1_
	.loc	22 955 12 is_stmt 1     @ Library/Android/sdk/ndk/21.4.7075529/toolchains/llvm/prebuilt/darwin-x86_64/sysroot/usr/include/c++/v1/fstream:955:12
	ldr	r0, [sp]                @ 4-byte Reload
	vld1.64	{d16, d17}, [r0]
	ldr	r1, [sp, #44]           @ 4-byte Reload
	vst1.64	{d16, d17}, [r1]
	.loc	22 955 5 is_stmt 0      @ Library/Android/sdk/ndk/21.4.7075529/toolchains/llvm/prebuilt/darwin-x86_64/sysroot/usr/include/c++/v1/fstream:955:5
	b	.LBB44_20
.LBB44_20:
	.loc	22 0 5                  @ Library/Android/sdk/ndk/21.4.7075529/toolchains/llvm/prebuilt/darwin-x86_64/sysroot/usr/include/c++/v1/fstream:0:5
	ldr	r0, .LCPI44_1
.LPC44_1:
	add	r0, pc
	ldr	r0, [r0]
	ldr	r0, [r0]
	ldr	r1, [sp, #92]
	cmp	r0, r1
	bne	.LBB44_22
	b	.LBB44_21
.LBB44_21:                              @ %SP_return
	.loc	22 956 1 is_stmt 1      @ Library/Android/sdk/ndk/21.4.7075529/toolchains/llvm/prebuilt/darwin-x86_64/sysroot/usr/include/c++/v1/fstream:956:1
	add	sp, #96
	ldr	r11, [sp], #4
	pop	{r4, r5, r6, r7, pc}
.LBB44_22:                              @ %CallStackCheckFailBlk
	.loc	22 0 0 is_stmt 0        @ Library/Android/sdk/ndk/21.4.7075529/toolchains/llvm/prebuilt/darwin-x86_64/sysroot/usr/include/c++/v1/fstream:0:0
	bl	__stack_chk_fail
.Ltmp458:
	.p2align	2
@ %bb.23:
.LCPI44_0:
.Ltmp459:
	.long	__stack_chk_guard(GOT_PREL)-((.LPC44_0+4)-.Ltmp459)
.LCPI44_1:
.Ltmp460:
	.long	__stack_chk_guard(GOT_PREL)-((.LPC44_1+4)-.Ltmp460)
.Lfunc_end44:
	.size	_ZNSt6__ndk113basic_filebufIcNS_11char_traitsIcEEE7seekoffExNS_8ios_base7seekdirEj, .Lfunc_end44-_ZNSt6__ndk113basic_filebufIcNS_11char_traitsIcEEE7seekoffExNS_8ios_base7seekdirEj
	.cfi_endproc
	.fnend
                                        @ -- End function
	.section	.text._ZNSt6__ndk113basic_filebufIcNS_11char_traitsIcEEE7seekposENS_4fposI9mbstate_tEEj,"axG",%progbits,_ZNSt6__ndk113basic_filebufIcNS_11char_traitsIcEEE7seekposENS_4fposI9mbstate_tEEj,comdat
	.weak	_ZNSt6__ndk113basic_filebufIcNS_11char_traitsIcEEE7seekposENS_4fposI9mbstate_tEEj @ -- Begin function _ZNSt6__ndk113basic_filebufIcNS_11char_traitsIcEEE7seekposENS_4fposI9mbstate_tEEj
	.p2align	2
	.type	_ZNSt6__ndk113basic_filebufIcNS_11char_traitsIcEEE7seekposENS_4fposI9mbstate_tEEj,%function
	.code	16                      @ @_ZNSt6__ndk113basic_filebufIcNS_11char_traitsIcEEE7seekposENS_4fposI9mbstate_tEEj
	.thumb_func
_ZNSt6__ndk113basic_filebufIcNS_11char_traitsIcEEE7seekposENS_4fposI9mbstate_tEEj:
.Lfunc_begin45:
	.loc	22 961 0 is_stmt 1      @ Library/Android/sdk/ndk/21.4.7075529/toolchains/llvm/prebuilt/darwin-x86_64/sysroot/usr/include/c++/v1/fstream:961:0
	.fnstart
	.cfi_startproc
@ %bb.0:
	.save	{r4, r5, r6, r7, lr}
	push	{r4, r5, r6, r7, lr}
	.cfi_def_cfa_offset 20
	.cfi_offset lr, -4
	.cfi_offset r7, -8
	.cfi_offset r6, -12
	.cfi_offset r5, -16
	.cfi_offset r4, -20
	.setfp	r7, sp, #12
	add	r7, sp, #12
	.cfi_def_cfa r7, 8
	.save	{r11}
	str	r11, [sp, #-4]!
	.cfi_offset r11, -24
	.pad	#64
	sub	sp, #64
	ldr.w	r12, [r7, #12]
	ldr.w	lr, [r7, #8]
	mov	r4, r3
	mov	r5, r2
	ldr	r6, [r7, #16]
	str	r0, [sp, #28]           @ 4-byte Spill
	ldr	r0, .LCPI45_0
.LPC45_0:
	add	r0, pc
	ldr	r0, [r0]
	ldr	r0, [r0]
	str	r0, [sp, #60]
	str.w	r12, [sp, #52]
	str.w	lr, [sp, #48]
	str	r3, [sp, #44]
	str	r2, [sp, #40]
	str	r1, [sp, #32]
	ldr	r0, [sp, #32]
.Ltmp461:
	.loc	22 962 9 prologue_end   @ Library/Android/sdk/ndk/21.4.7075529/toolchains/llvm/prebuilt/darwin-x86_64/sysroot/usr/include/c++/v1/fstream:962:9
	ldr	r1, [r0, #64]
	.loc	22 962 22 is_stmt 0     @ Library/Android/sdk/ndk/21.4.7075529/toolchains/llvm/prebuilt/darwin-x86_64/sysroot/usr/include/c++/v1/fstream:962:22
	cmp	r1, #0
	str	r0, [sp, #24]           @ 4-byte Spill
	beq	.LBB45_2
	b	.LBB45_1
.LBB45_1:
	.loc	22 962 25               @ Library/Android/sdk/ndk/21.4.7075529/toolchains/llvm/prebuilt/darwin-x86_64/sysroot/usr/include/c++/v1/fstream:962:25
	ldr	r0, [sp, #24]           @ 4-byte Reload
	ldr	r1, [r0]
	ldr	r1, [r1, #24]
	blx	r1
.Ltmp462:
	.loc	22 962 9                @ Library/Android/sdk/ndk/21.4.7075529/toolchains/llvm/prebuilt/darwin-x86_64/sysroot/usr/include/c++/v1/fstream:962:9
	cmp	r0, #0
	beq	.LBB45_3
	b	.LBB45_2
.LBB45_2:
	.loc	22 0 9                  @ Library/Android/sdk/ndk/21.4.7075529/toolchains/llvm/prebuilt/darwin-x86_64/sysroot/usr/include/c++/v1/fstream:0:9
	mov.w	r0, #-1
.Ltmp463:
	.loc	22 963 16 is_stmt 1     @ Library/Android/sdk/ndk/21.4.7075529/toolchains/llvm/prebuilt/darwin-x86_64/sysroot/usr/include/c++/v1/fstream:963:16
	ldr	r1, [sp, #28]           @ 4-byte Reload
	str	r0, [sp, #20]           @ 4-byte Spill
	mov	r0, r1
	ldr	r2, [sp, #20]           @ 4-byte Reload
	ldr	r3, [sp, #20]           @ 4-byte Reload
	bl	_ZNSt6__ndk14fposI9mbstate_tEC2Ex
	.loc	22 963 9 is_stmt 0      @ Library/Android/sdk/ndk/21.4.7075529/toolchains/llvm/prebuilt/darwin-x86_64/sysroot/usr/include/c++/v1/fstream:963:9
	b	.LBB45_6
.Ltmp464:
.LBB45_3:
	.loc	22 968 16 is_stmt 1     @ Library/Android/sdk/ndk/21.4.7075529/toolchains/llvm/prebuilt/darwin-x86_64/sysroot/usr/include/c++/v1/fstream:968:16
	ldr	r0, [sp, #24]           @ 4-byte Reload
	ldr	r0, [r0, #64]
	add	r1, sp, #40
	.loc	22 968 25 is_stmt 0     @ Library/Android/sdk/ndk/21.4.7075529/toolchains/llvm/prebuilt/darwin-x86_64/sysroot/usr/include/c++/v1/fstream:968:25
	str	r0, [sp, #16]           @ 4-byte Spill
	mov	r0, r1
	bl	_ZNKSt6__ndk14fposI9mbstate_tEcvxEv
	movs	r2, #0
	.loc	22 968 9                @ Library/Android/sdk/ndk/21.4.7075529/toolchains/llvm/prebuilt/darwin-x86_64/sysroot/usr/include/c++/v1/fstream:968:9
	ldr	r3, [sp, #16]           @ 4-byte Reload
	str	r0, [sp, #12]           @ 4-byte Spill
	mov	r0, r3
	ldr.w	r12, [sp, #12]          @ 4-byte Reload
	str	r1, [sp, #8]            @ 4-byte Spill
	mov	r1, r12
	bl	fseeko
.Ltmp465:
	.loc	22 968 9                @ Library/Android/sdk/ndk/21.4.7075529/toolchains/llvm/prebuilt/darwin-x86_64/sysroot/usr/include/c++/v1/fstream:968:9
	cmp	r0, #0
	beq	.LBB45_5
	b	.LBB45_4
.LBB45_4:
	.loc	22 0 9                  @ Library/Android/sdk/ndk/21.4.7075529/toolchains/llvm/prebuilt/darwin-x86_64/sysroot/usr/include/c++/v1/fstream:0:9
	mov.w	r0, #-1
.Ltmp466:
	.loc	22 969 16 is_stmt 1     @ Library/Android/sdk/ndk/21.4.7075529/toolchains/llvm/prebuilt/darwin-x86_64/sysroot/usr/include/c++/v1/fstream:969:16
	ldr	r1, [sp, #28]           @ 4-byte Reload
	str	r0, [sp, #4]            @ 4-byte Spill
	mov	r0, r1
	ldr	r2, [sp, #4]            @ 4-byte Reload
	ldr	r3, [sp, #4]            @ 4-byte Reload
	bl	_ZNSt6__ndk14fposI9mbstate_tEC2Ex
	.loc	22 969 9 is_stmt 0      @ Library/Android/sdk/ndk/21.4.7075529/toolchains/llvm/prebuilt/darwin-x86_64/sysroot/usr/include/c++/v1/fstream:969:9
	b	.LBB45_6
.Ltmp467:
.LBB45_5:
	.loc	22 0 9                  @ Library/Android/sdk/ndk/21.4.7075529/toolchains/llvm/prebuilt/darwin-x86_64/sysroot/usr/include/c++/v1/fstream:0:9
	add	r0, sp, #40
	.loc	22 971 18 is_stmt 1     @ Library/Android/sdk/ndk/21.4.7075529/toolchains/llvm/prebuilt/darwin-x86_64/sysroot/usr/include/c++/v1/fstream:971:18
	str	r0, [sp]                @ 4-byte Spill
	bl	_ZNKSt6__ndk14fposI9mbstate_tE5stateEv
	str	r0, [sp, #36]
	.loc	22 971 11 is_stmt 0     @ Library/Android/sdk/ndk/21.4.7075529/toolchains/llvm/prebuilt/darwin-x86_64/sysroot/usr/include/c++/v1/fstream:971:11
	ldr	r0, [sp, #36]
	ldr	r1, [sp, #24]           @ 4-byte Reload
	str	r0, [r1, #72]
	.loc	22 972 12 is_stmt 1     @ Library/Android/sdk/ndk/21.4.7075529/toolchains/llvm/prebuilt/darwin-x86_64/sysroot/usr/include/c++/v1/fstream:972:12
	ldr	r0, [sp]                @ 4-byte Reload
	vld1.64	{d16, d17}, [r0]
	ldr	r2, [sp, #28]           @ 4-byte Reload
	vst1.64	{d16, d17}, [r2]
	.loc	22 972 5 is_stmt 0      @ Library/Android/sdk/ndk/21.4.7075529/toolchains/llvm/prebuilt/darwin-x86_64/sysroot/usr/include/c++/v1/fstream:972:5
	b	.LBB45_6
.LBB45_6:
	.loc	22 0 5                  @ Library/Android/sdk/ndk/21.4.7075529/toolchains/llvm/prebuilt/darwin-x86_64/sysroot/usr/include/c++/v1/fstream:0:5
	ldr	r0, .LCPI45_1
.LPC45_1:
	add	r0, pc
	ldr	r0, [r0]
	ldr	r0, [r0]
	ldr	r1, [sp, #60]
	cmp	r0, r1
	bne	.LBB45_8
	b	.LBB45_7
.LBB45_7:                               @ %SP_return
	.loc	22 973 1 is_stmt 1      @ Library/Android/sdk/ndk/21.4.7075529/toolchains/llvm/prebuilt/darwin-x86_64/sysroot/usr/include/c++/v1/fstream:973:1
	add	sp, #64
	ldr	r11, [sp], #4
	pop	{r4, r5, r6, r7, pc}
.LBB45_8:                               @ %CallStackCheckFailBlk
	.loc	22 0 0 is_stmt 0        @ Library/Android/sdk/ndk/21.4.7075529/toolchains/llvm/prebuilt/darwin-x86_64/sysroot/usr/include/c++/v1/fstream:0:0
	bl	__stack_chk_fail
.Ltmp468:
	.p2align	2
@ %bb.9:
.LCPI45_0:
.Ltmp469:
	.long	__stack_chk_guard(GOT_PREL)-((.LPC45_0+4)-.Ltmp469)
.LCPI45_1:
.Ltmp470:
	.long	__stack_chk_guard(GOT_PREL)-((.LPC45_1+4)-.Ltmp470)
.Lfunc_end45:
	.size	_ZNSt6__ndk113basic_filebufIcNS_11char_traitsIcEEE7seekposENS_4fposI9mbstate_tEEj, .Lfunc_end45-_ZNSt6__ndk113basic_filebufIcNS_11char_traitsIcEEE7seekposENS_4fposI9mbstate_tEEj
	.cfi_endproc
	.fnend
                                        @ -- End function
	.section	.text._ZNSt6__ndk113basic_filebufIcNS_11char_traitsIcEEE4syncEv,"axG",%progbits,_ZNSt6__ndk113basic_filebufIcNS_11char_traitsIcEEE4syncEv,comdat
	.weak	_ZNSt6__ndk113basic_filebufIcNS_11char_traitsIcEEE4syncEv @ -- Begin function _ZNSt6__ndk113basic_filebufIcNS_11char_traitsIcEEE4syncEv
	.p2align	2
	.type	_ZNSt6__ndk113basic_filebufIcNS_11char_traitsIcEEE4syncEv,%function
	.code	16                      @ @_ZNSt6__ndk113basic_filebufIcNS_11char_traitsIcEEE4syncEv
	.thumb_func
_ZNSt6__ndk113basic_filebufIcNS_11char_traitsIcEEE4syncEv:
.Lfunc_begin46:
	.loc	22 978 0 is_stmt 1      @ Library/Android/sdk/ndk/21.4.7075529/toolchains/llvm/prebuilt/darwin-x86_64/sysroot/usr/include/c++/v1/fstream:978:0
	.fnstart
	.cfi_startproc
@ %bb.0:
	.save	{r7, lr}
	push	{r7, lr}
	.cfi_def_cfa_offset 8
	.cfi_offset lr, -4
	.cfi_offset r7, -8
	.setfp	r7, sp
	mov	r7, sp
	.cfi_def_cfa_register r7
	.pad	#136
	sub	sp, #136
	ldr	r1, .LCPI46_0
.LPC46_0:
	add	r1, pc
	ldr	r1, [r1]
	ldr	r1, [r1]
	str	r1, [sp, #132]
	str	r0, [sp, #96]
	ldr	r0, [sp, #96]
.Ltmp471:
	.loc	22 979 9 prologue_end   @ Library/Android/sdk/ndk/21.4.7075529/toolchains/llvm/prebuilt/darwin-x86_64/sysroot/usr/include/c++/v1/fstream:979:9
	ldr	r1, [r0, #64]
.Ltmp472:
	.loc	22 979 9 is_stmt 0      @ Library/Android/sdk/ndk/21.4.7075529/toolchains/llvm/prebuilt/darwin-x86_64/sysroot/usr/include/c++/v1/fstream:979:9
	cmp	r1, #0
	str	r0, [sp, #64]           @ 4-byte Spill
	bne	.LBB46_2
	b	.LBB46_1
.LBB46_1:
