	.text
	.syntax unified
	.eabi_attribute	67, "2.09"	@ Tag_conformance
	.eabi_attribute	6, 10	@ Tag_CPU_arch
	.eabi_attribute	7, 65	@ Tag_CPU_arch_profile
	.eabi_attribute	8, 1	@ Tag_ARM_ISA_use
	.eabi_attribute	9, 2	@ Tag_THUMB_ISA_use
	.fpu	neon
	.eabi_attribute	34, 1	@ Tag_CPU_unaligned_access
	.eabi_attribute	15, 1	@ Tag_ABI_PCS_RW_data
	.eabi_attribute	16, 1	@ Tag_ABI_PCS_RO_data
	.eabi_attribute	17, 2	@ Tag_ABI_PCS_GOT_use
	.eabi_attribute	20, 1	@ Tag_ABI_FP_denormal
	.eabi_attribute	21, 1	@ Tag_ABI_FP_exceptions
	.eabi_attribute	23, 3	@ Tag_ABI_FP_number_model
	.eabi_attribute	24, 1	@ Tag_ABI_align_needed
	.eabi_attribute	25, 1	@ Tag_ABI_align_preserved
	.eabi_attribute	38, 1	@ Tag_ABI_FP_16bit_format
	.eabi_attribute	18, 4	@ Tag_ABI_PCS_wchar_t
	.eabi_attribute	26, 2	@ Tag_ABI_enum_size
	.eabi_attribute	14, 0	@ Tag_ABI_PCS_R9_use
	.file	"VideoData.cpp"
	.file	1 "/Users/bytedance/code/my/LiveStream/AndroidPublisher/rtmplive" "src/main/cpp/IBuffer.h"
	.file	2 "/Users/bytedance/code/my/LiveStream/AndroidPublisher/rtmplive" "src/main/cpp/IFLVTagData.h"
	.file	3 "/Users/bytedance/code/my/LiveStream/AndroidPublisher/rtmplive" "src/main/cpp/VideoData.h"
	.file	4 "/Users/bytedance/code/my/LiveStream/AndroidPublisher/rtmplive" "src/main/cpp/IVideoPacket.h"
	.file	5 "/Users/bytedance" "Library/Android/sdk/ndk/21.4.7075529/toolchains/llvm/prebuilt/darwin-x86_64/sysroot/usr/include/c++/v1/__nullptr"
	.file	6 "/Users/bytedance" "Library/Android/sdk/ndk/21.4.7075529/toolchains/llvm/prebuilt/darwin-x86_64/sysroot/usr/include/c++/v1/stddef.h"
	.section	.text._ZN9VideoDataC2ENS_9FrameTypeENS_12VideoCodecIdEP12IVideoPacket,"ax",%progbits
	.globl	_ZN9VideoDataC2ENS_9FrameTypeENS_12VideoCodecIdEP12IVideoPacket @ -- Begin function _ZN9VideoDataC2ENS_9FrameTypeENS_12VideoCodecIdEP12IVideoPacket
	.p2align	2
	.type	_ZN9VideoDataC2ENS_9FrameTypeENS_12VideoCodecIdEP12IVideoPacket,%function
	.code	16                      @ @_ZN9VideoDataC2ENS_9FrameTypeENS_12VideoCodecIdEP12IVideoPacket
	.thumb_func
_ZN9VideoDataC2ENS_9FrameTypeENS_12VideoCodecIdEP12IVideoPacket:
.Lfunc_begin0:
	.file	7 "/Users/bytedance/code/my/LiveStream/AndroidPublisher/rtmplive" "src/main/cpp/VideoData.cpp"
	.loc	7 9 0                   @ src/main/cpp/VideoData.cpp:9:0
	.fnstart
	.cfi_sections .debug_frame
	.cfi_startproc
@ %bb.0:
	.save	{r7, lr}
	push	{r7, lr}
	.cfi_def_cfa_offset 8
	.cfi_offset lr, -4
	.cfi_offset r7, -8
	.setfp	r7, sp
	mov	r7, sp
	.cfi_def_cfa_register r7
	.pad	#24
	sub	sp, #24
	str	r0, [sp, #20]
	str	r1, [sp, #16]
	str	r2, [sp, #12]
	str	r3, [sp, #8]
	ldr	r0, [sp, #20]
.Ltmp0:
	.loc	7 8 12 prologue_end     @ src/main/cpp/VideoData.cpp:8:12
	str	r0, [sp, #4]            @ 4-byte Spill
	bl	_ZN11IFLVTagDataC2Ev
	.loc	7 9 85                  @ src/main/cpp/VideoData.cpp:9:85
	ldr	r0, .LCPI0_0
.LPC0_0:
	add	r0, pc
	ldr	r0, [r0]
	adds	r0, #8
	ldr	r1, [sp, #4]            @ 4-byte Reload
	str	r0, [r1]
	.loc	7 9 23 is_stmt 0        @ src/main/cpp/VideoData.cpp:9:23
	ldr	r0, [sp, #16]
	.loc	7 9 11                  @ src/main/cpp/VideoData.cpp:9:11
	str	r0, [r1, #4]
	.loc	7 9 46                  @ src/main/cpp/VideoData.cpp:9:46
	ldr	r0, [sp, #12]
	.loc	7 9 36                  @ src/main/cpp/VideoData.cpp:9:36
	str	r0, [r1, #8]
	.loc	7 9 71                  @ src/main/cpp/VideoData.cpp:9:71
	ldr	r0, [sp, #8]
	.loc	7 9 57                  @ src/main/cpp/VideoData.cpp:9:57
	str	r0, [r1, #12]
	.loc	7 10 1 is_stmt 1        @ src/main/cpp/VideoData.cpp:10:1
	mov	r0, r1
	add	sp, #24
	pop	{r7, pc}
.Ltmp1:
	.p2align	2
@ %bb.1:
	.loc	7 0 1 is_stmt 0         @ src/main/cpp/VideoData.cpp:0:1
.LCPI0_0:
.Ltmp2:
	.long	_ZTV9VideoData(GOT_PREL)-((.LPC0_0+4)-.Ltmp2)
.Lfunc_end0:
	.size	_ZN9VideoDataC2ENS_9FrameTypeENS_12VideoCodecIdEP12IVideoPacket, .Lfunc_end0-_ZN9VideoDataC2ENS_9FrameTypeENS_12VideoCodecIdEP12IVideoPacket
	.cfi_endproc
	.fnend
                                        @ -- End function
	.section	.text._ZN11IFLVTagDataC2Ev,"axG",%progbits,_ZN11IFLVTagDataC2Ev,comdat
	.weak	_ZN11IFLVTagDataC2Ev    @ -- Begin function _ZN11IFLVTagDataC2Ev
	.p2align	2
	.type	_ZN11IFLVTagDataC2Ev,%function
	.code	16                      @ @_ZN11IFLVTagDataC2Ev
	.thumb_func
_ZN11IFLVTagDataC2Ev:
.Lfunc_begin1:
	.loc	2 10 0 is_stmt 1        @ src/main/cpp/IFLVTagData.h:10:0
	.fnstart
	.cfi_startproc
@ %bb.0:
	.save	{r7, lr}
	push	{r7, lr}
	.cfi_def_cfa_offset 8
	.cfi_offset lr, -4
	.cfi_offset r7, -8
	.setfp	r7, sp
	mov	r7, sp
	.cfi_def_cfa_register r7
	.pad	#8
	sub	sp, #8
	str	r0, [sp, #4]
	ldr	r0, [sp, #4]
.Ltmp3:
	.loc	2 10 7 prologue_end     @ src/main/cpp/IFLVTagData.h:10:7
	str	r0, [sp]                @ 4-byte Spill
	bl	_ZN7IBufferC2Ev
	ldr	r0, .LCPI1_0
.LPC1_0:
	add	r0, pc
	ldr	r0, [r0]
	adds	r0, #8
	ldr	r1, [sp]                @ 4-byte Reload
	str	r0, [r1]
	mov	r0, r1
	add	sp, #8
	pop	{r7, pc}
.Ltmp4:
	.p2align	2
@ %bb.1:
	.loc	2 0 7 is_stmt 0         @ src/main/cpp/IFLVTagData.h:0:7
.LCPI1_0:
.Ltmp5:
	.long	_ZTV11IFLVTagData(GOT_PREL)-((.LPC1_0+4)-.Ltmp5)
.Lfunc_end1:
	.size	_ZN11IFLVTagDataC2Ev, .Lfunc_end1-_ZN11IFLVTagDataC2Ev
	.cfi_endproc
	.fnend
                                        @ -- End function
	.section	.text._ZN9VideoDataD2Ev,"ax",%progbits
	.globl	_ZN9VideoDataD2Ev       @ -- Begin function _ZN9VideoDataD2Ev
	.p2align	1
	.type	_ZN9VideoDataD2Ev,%function
	.code	16                      @ @_ZN9VideoDataD2Ev
	.thumb_func
_ZN9VideoDataD2Ev:
.Lfunc_begin2:
	.loc	7 12 0 is_stmt 1        @ src/main/cpp/VideoData.cpp:12:0
	.fnstart
	.cfi_startproc
@ %bb.0:
	.pad	#4
	sub	sp, #4
	.cfi_def_cfa_offset 4
	str	r0, [sp]
	ldr	r0, [sp]
.Ltmp6:
	.loc	7 13 1 prologue_end     @ src/main/cpp/VideoData.cpp:13:1
	add	sp, #4
	bx	lr
.Ltmp7:
.Lfunc_end2:
	.size	_ZN9VideoDataD2Ev, .Lfunc_end2-_ZN9VideoDataD2Ev
	.cfi_endproc
	.fnend
                                        @ -- End function
	.section	.text._ZN9VideoDataD0Ev,"ax",%progbits
	.globl	_ZN9VideoDataD0Ev       @ -- Begin function _ZN9VideoDataD0Ev
	.p2align	1
	.type	_ZN9VideoDataD0Ev,%function
	.code	16                      @ @_ZN9VideoDataD0Ev
	.thumb_func
_ZN9VideoDataD0Ev:
.Lfunc_begin3:
	.loc	7 12 0                  @ src/main/cpp/VideoData.cpp:12:0
	.fnstart
	.cfi_startproc
@ %bb.0:
	.save	{r7, lr}
	push	{r7, lr}
	.cfi_def_cfa_offset 8
	.cfi_offset lr, -4
	.cfi_offset r7, -8
	.setfp	r7, sp
	mov	r7, sp
	.cfi_def_cfa_register r7
	.pad	#16
	sub	sp, #16
	str	r0, [sp, #12]
	ldr	r0, [sp, #12]
.Ltmp8:
	.loc	7 12 25 prologue_end    @ src/main/cpp/VideoData.cpp:12:25
	str	r0, [sp, #8]            @ 4-byte Spill
	bl	_ZN9VideoDataD1Ev
	ldr	r1, [sp, #8]            @ 4-byte Reload
	str	r0, [sp, #4]            @ 4-byte Spill
	mov	r0, r1
	bl	_ZdlPv
	.loc	7 13 1                  @ src/main/cpp/VideoData.cpp:13:1
	add	sp, #16
	pop	{r7, pc}
.Ltmp9:
.Lfunc_end3:
	.size	_ZN9VideoDataD0Ev, .Lfunc_end3-_ZN9VideoDataD0Ev
	.cfi_endproc
	.fnend
                                        @ -- End function
	.section	.text._ZN9VideoData7WriteToEPc,"ax",%progbits
	.globl	_ZN9VideoData7WriteToEPc @ -- Begin function _ZN9VideoData7WriteToEPc
	.p2align	1
	.type	_ZN9VideoData7WriteToEPc,%function
	.code	16                      @ @_ZN9VideoData7WriteToEPc
	.thumb_func
_ZN9VideoData7WriteToEPc:
.Lfunc_begin4:
	.loc	7 15 0                  @ src/main/cpp/VideoData.cpp:15:0
	.fnstart
	.cfi_startproc
@ %bb.0:
	.save	{r7, lr}
	push	{r7, lr}
	.cfi_def_cfa_offset 8
	.cfi_offset lr, -4
	.cfi_offset r7, -8
	.setfp	r7, sp
	mov	r7, sp
	.cfi_def_cfa_register r7
	.pad	#8
	sub	sp, #8
	str	r0, [sp, #4]
	str	r1, [sp]
	ldr	r0, [sp, #4]
.Ltmp10:
	.loc	7 16 19 prologue_end    @ src/main/cpp/VideoData.cpp:16:19
	ldr	r1, [r0, #4]
	.loc	7 16 38 is_stmt 0       @ src/main/cpp/VideoData.cpp:16:38
	ldr	r2, [r0, #8]
	.loc	7 16 36                 @ src/main/cpp/VideoData.cpp:16:36
	orr.w	r1, r2, r1, lsl #4
	.loc	7 16 13                 @ src/main/cpp/VideoData.cpp:16:13
	ldr	r2, [sp]
	adds	r3, r2, #1
	str	r3, [sp]
	.loc	7 16 17                 @ src/main/cpp/VideoData.cpp:16:17
	strb	r1, [r2]
	.loc	7 17 12 is_stmt 1       @ src/main/cpp/VideoData.cpp:17:12
	ldr	r0, [r0, #12]
	.loc	7 17 35 is_stmt 0       @ src/main/cpp/VideoData.cpp:17:35
	ldr	r1, [sp]
	.loc	7 17 27                 @ src/main/cpp/VideoData.cpp:17:27
	ldr	r2, [r0]
	ldr	r2, [r2]
	blx	r2
	.loc	7 17 5                  @ src/main/cpp/VideoData.cpp:17:5
	add	sp, #8
	pop	{r7, pc}
.Ltmp11:
.Lfunc_end4:
	.size	_ZN9VideoData7WriteToEPc, .Lfunc_end4-_ZN9VideoData7WriteToEPc
	.cfi_endproc
	.fnend
                                        @ -- End function
	.section	.text._ZN9VideoData4SizeEv,"ax",%progbits
	.globl	_ZN9VideoData4SizeEv    @ -- Begin function _ZN9VideoData4SizeEv
	.p2align	1
	.type	_ZN9VideoData4SizeEv,%function
	.code	16                      @ @_ZN9VideoData4SizeEv
	.thumb_func
_ZN9VideoData4SizeEv:
.Lfunc_begin5:
	.loc	7 20 0 is_stmt 1        @ src/main/cpp/VideoData.cpp:20:0
	.fnstart
	.cfi_startproc
@ %bb.0:
	.save	{r7, lr}
	push	{r7, lr}
	.cfi_def_cfa_offset 8
	.cfi_offset lr, -4
	.cfi_offset r7, -8
	.setfp	r7, sp
	mov	r7, sp
	.cfi_def_cfa_register r7
	.pad	#8
	sub	sp, #8
	str	r0, [sp, #4]
	ldr	r0, [sp, #4]
.Ltmp12:
	.loc	7 21 16 prologue_end    @ src/main/cpp/VideoData.cpp:21:16
	ldr	r0, [r0, #12]
	.loc	7 21 31 is_stmt 0       @ src/main/cpp/VideoData.cpp:21:31
	ldr	r1, [r0]
	ldr	r1, [r1, #4]
	blx	r1
	.loc	7 21 14                 @ src/main/cpp/VideoData.cpp:21:14
	adds	r0, #1
	.loc	7 21 5                  @ src/main/cpp/VideoData.cpp:21:5
	add	sp, #8
	pop	{r7, pc}
.Ltmp13:
.Lfunc_end5:
	.size	_ZN9VideoData4SizeEv, .Lfunc_end5-_ZN9VideoData4SizeEv
	.cfi_endproc
	.fnend
                                        @ -- End function
	.section	.text._ZN7IBufferC2Ev,"axG",%progbits,_ZN7IBufferC2Ev,comdat
	.weak	_ZN7IBufferC2Ev         @ -- Begin function _ZN7IBufferC2Ev
	.p2align	2
	.type	_ZN7IBufferC2Ev,%function
	.code	16                      @ @_ZN7IBufferC2Ev
	.thumb_func
_ZN7IBufferC2Ev:
.Lfunc_begin6:
	.loc	1 9 0 is_stmt 1         @ src/main/cpp/IBuffer.h:9:0
	.fnstart
	.cfi_startproc
@ %bb.0:
	.pad	#4
	sub	sp, #4
	.cfi_def_cfa_offset 4
	str	r0, [sp]
	ldr	r0, [sp]
.Ltmp14:
	.loc	1 9 7 prologue_end      @ src/main/cpp/IBuffer.h:9:7
	ldr	r1, .LCPI6_0
.LPC6_0:
	add	r1, pc
	ldr	r1, [r1]
	adds	r1, #8
	str	r1, [r0]
	add	sp, #4
	bx	lr
.Ltmp15:
	.p2align	2
@ %bb.1:
	.loc	1 0 7 is_stmt 0         @ src/main/cpp/IBuffer.h:0:7
.LCPI6_0:
.Ltmp16:
	.long	_ZTV7IBuffer(GOT_PREL)-((.LPC6_0+4)-.Ltmp16)
.Lfunc_end6:
	.size	_ZN7IBufferC2Ev, .Lfunc_end6-_ZN7IBufferC2Ev
	.cfi_endproc
	.fnend
                                        @ -- End function
	.type	_ZTV9VideoData,%object  @ @_ZTV9VideoData
	.section	.data.rel.ro._ZTV9VideoData,"aw",%progbits
	.globl	_ZTV9VideoData
	.p2align	2
_ZTV9VideoData:
	.long	0
	.long	_ZTI9VideoData
	.long	_ZN9VideoData7WriteToEPc
	.long	_ZN9VideoData4SizeEv
	.long	_ZN9VideoDataD1Ev
	.long	_ZN9VideoDataD0Ev
	.size	_ZTV9VideoData, 24

	.type	_ZTS9VideoData,%object  @ @_ZTS9VideoData
	.section	.rodata._ZTS9VideoData,"a",%progbits
	.globl	_ZTS9VideoData
_ZTS9VideoData:
	.asciz	"9VideoData"
	.size	_ZTS9VideoData, 11

	.type	_ZTS11IFLVTagData,%object @ @_ZTS11IFLVTagData
	.section	.rodata._ZTS11IFLVTagData,"aG",%progbits,_ZTS11IFLVTagData,comdat
	.weak	_ZTS11IFLVTagData
_ZTS11IFLVTagData:
	.asciz	"11IFLVTagData"
	.size	_ZTS11IFLVTagData, 14

	.type	_ZTS7IBuffer,%object    @ @_ZTS7IBuffer
	.section	.rodata._ZTS7IBuffer,"aG",%progbits,_ZTS7IBuffer,comdat
	.weak	_ZTS7IBuffer
_ZTS7IBuffer:
	.asciz	"7IBuffer"
	.size	_ZTS7IBuffer, 9

	.type	_ZTI7IBuffer,%object    @ @_ZTI7IBuffer
	.section	.data.rel.ro._ZTI7IBuffer,"aGw",%progbits,_ZTI7IBuffer,comdat
	.weak	_ZTI7IBuffer
	.p2align	2
_ZTI7IBuffer:
	.long	_ZTVN10__cxxabiv117__class_type_infoE+8
	.long	_ZTS7IBuffer
	.size	_ZTI7IBuffer, 8

	.type	_ZTI11IFLVTagData,%object @ @_ZTI11IFLVTagData
	.section	.data.rel.ro._ZTI11IFLVTagData,"aGw",%progbits,_ZTI11IFLVTagData,comdat
	.weak	_ZTI11IFLVTagData
	.p2align	2
_ZTI11IFLVTagData:
	.long	_ZTVN10__cxxabiv120__si_class_type_infoE+8
	.long	_ZTS11IFLVTagData
	.long	_ZTI7IBuffer
	.size	_ZTI11IFLVTagData, 12

	.type	_ZTI9VideoData,%object  @ @_ZTI9VideoData
	.section	.data.rel.ro._ZTI9VideoData,"aw",%progbits
	.globl	_ZTI9VideoData
	.p2align	2
_ZTI9VideoData:
	.long	_ZTVN10__cxxabiv120__si_class_type_infoE+8
	.long	_ZTS9VideoData
	.long	_ZTI11IFLVTagData
	.size	_ZTI9VideoData, 12

	.type	_ZTV11IFLVTagData,%object @ @_ZTV11IFLVTagData
	.section	.data.rel.ro._ZTV11IFLVTagData,"aGw",%progbits,_ZTV11IFLVTagData,comdat
	.weak	_ZTV11IFLVTagData
	.p2align	2
_ZTV11IFLVTagData:
	.long	0
	.long	_ZTI11IFLVTagData
	.long	__cxa_pure_virtual
	.long	__cxa_pure_virtual
	.size	_ZTV11IFLVTagData, 16

	.type	_ZTV7IBuffer,%object    @ @_ZTV7IBuffer
	.section	.data.rel.ro._ZTV7IBuffer,"aGw",%progbits,_ZTV7IBuffer,comdat
	.weak	_ZTV7IBuffer
	.p2align	2
_ZTV7IBuffer:
	.long	0
	.long	_ZTI7IBuffer
	.long	__cxa_pure_virtual
	.long	__cxa_pure_virtual
	.size	_ZTV7IBuffer, 16

	.file	8 "<stdin>"
	.section	".note.GNU-stack","",%progbits